                                      1 ;--------------------------------------------------------
                                      2 ; File Created by SDCC : free open source ANSI-C Compiler
                                      3 ; Version 3.4.0 #8981 (Oct 24 2015) (Linux)
                                      4 ; This file was generated Sun Oct 25 01:52:03 2015
                                      5 ;--------------------------------------------------------
                                      6 	.module collect_link_estimate
                                      7 	.optsdcc -mmcs51 --model-large
                                      8 	
                                      9 ;--------------------------------------------------------
                                     10 ; Public variables in this module
                                     11 ;--------------------------------------------------------
                                     12 	.globl _collect_link_estimate_new
                                     13 	.globl _collect_link_estimate_update_tx
                                     14 	.globl _collect_link_estimate_update_tx_fail
                                     15 	.globl _collect_link_estimate_update_rx
                                     16 	.globl _collect_link_estimate
                                     17 	.globl _collect_link_estimate_num_estimates
                                     18 ;--------------------------------------------------------
                                     19 ; special function registers
                                     20 ;--------------------------------------------------------
                                     21 	.area RSEG    (ABS,DATA)
      000000                         22 	.org 0x0000
                                     23 ;--------------------------------------------------------
                                     24 ; special function bits
                                     25 ;--------------------------------------------------------
                                     26 	.area RSEG    (ABS,DATA)
      000000                         27 	.org 0x0000
                                     28 ;--------------------------------------------------------
                                     29 ; overlayable register banks
                                     30 ;--------------------------------------------------------
                                     31 	.area REG_BANK_0	(REL,OVR,DATA)
      000000                         32 	.ds 8
                                     33 ;--------------------------------------------------------
                                     34 ; internal ram data
                                     35 ;--------------------------------------------------------
                                     36 	.area DSEG    (DATA)
                                     37 ;--------------------------------------------------------
                                     38 ; overlayable items in internal ram 
                                     39 ;--------------------------------------------------------
                                     40 ;--------------------------------------------------------
                                     41 ; indirectly addressable internal ram data
                                     42 ;--------------------------------------------------------
                                     43 	.area ISEG    (DATA)
                                     44 ;--------------------------------------------------------
                                     45 ; absolute internal ram data
                                     46 ;--------------------------------------------------------
                                     47 	.area IABS    (ABS,DATA)
                                     48 	.area IABS    (ABS,DATA)
                                     49 ;--------------------------------------------------------
                                     50 ; bit data
                                     51 ;--------------------------------------------------------
                                     52 	.area BSEG    (BIT)
                                     53 ;--------------------------------------------------------
                                     54 ; paged external ram data
                                     55 ;--------------------------------------------------------
                                     56 	.area PSEG    (PAG,XDATA)
                                     57 ;--------------------------------------------------------
                                     58 ; external ram data
                                     59 ;--------------------------------------------------------
                                     60 	.area XSEG    (XDATA)
                                     61 ;--------------------------------------------------------
                                     62 ; absolute external ram data
                                     63 ;--------------------------------------------------------
                                     64 	.area XABS    (ABS,XDATA)
                                     65 ;--------------------------------------------------------
                                     66 ; external initialized ram data
                                     67 ;--------------------------------------------------------
                                     68 	.area XISEG   (XDATA)
                                     69 	.area HOME    (CODE)
                                     70 	.area GSINIT0 (CODE)
                                     71 	.area GSINIT1 (CODE)
                                     72 	.area GSINIT2 (CODE)
                                     73 	.area GSINIT3 (CODE)
                                     74 	.area GSINIT4 (CODE)
                                     75 	.area GSINIT5 (CODE)
                                     76 	.area GSINIT  (CODE)
                                     77 	.area GSFINAL (CODE)
                                     78 	.area CSEG    (CODE)
                                     79 ;--------------------------------------------------------
                                     80 ; global & static initialisations
                                     81 ;--------------------------------------------------------
                                     82 	.area HOME    (CODE)
                                     83 	.area GSINIT  (CODE)
                                     84 	.area GSFINAL (CODE)
                                     85 	.area GSINIT  (CODE)
                                     86 ;--------------------------------------------------------
                                     87 ; Home
                                     88 ;--------------------------------------------------------
                                     89 	.area HOME    (CODE)
                                     90 	.area HOME    (CODE)
                                     91 ;--------------------------------------------------------
                                     92 ; code
                                     93 ;--------------------------------------------------------
                                     94 	.area CSEG    (CODE)
                                     95 ;------------------------------------------------------------
                                     96 ;Allocation info for local variables in function 'collect_link_estimate_new'
                                     97 ;------------------------------------------------------------
                                     98 ;le                        Allocated to registers r5 r6 r7 
                                     99 ;------------------------------------------------------------
                                    100 ;	../contiki-sensinode/core/net/rime/collect-link-estimate.c:63: collect_link_estimate_new(struct collect_link_estimate *le)
                                    101 ;	-----------------------------------------
                                    102 ;	 function collect_link_estimate_new
                                    103 ;	-----------------------------------------
      000000                        104 _collect_link_estimate_new:
                           000007   105 	ar7 = 0x07
                           000006   106 	ar6 = 0x06
                           000005   107 	ar5 = 0x05
                           000004   108 	ar4 = 0x04
                           000003   109 	ar3 = 0x03
                           000002   110 	ar2 = 0x02
                           000001   111 	ar1 = 0x01
                           000000   112 	ar0 = 0x00
      000000 AD 82            [24]  113 	mov	r5,dpl
      000002 AE 83            [24]  114 	mov	r6,dph
      000004 AF F0            [24]  115 	mov	r7,b
                                    116 ;	../contiki-sensinode/core/net/rime/collect-link-estimate.c:65: if(le == NULL) {
      000006 ED               [12]  117 	mov	a,r5
      000007 4E               [12]  118 	orl	a,r6
      000008 70 01            [24]  119 	jnz	00102$
                                    120 ;	../contiki-sensinode/core/net/rime/collect-link-estimate.c:66: return;
      00000A 22               [24]  121 	ret
      00000B                        122 00102$:
                                    123 ;	../contiki-sensinode/core/net/rime/collect-link-estimate.c:68: le->num_estimates = 0;
      00000B 74 04            [12]  124 	mov	a,#0x04
      00000D 2D               [12]  125 	add	a,r5
      00000E FA               [12]  126 	mov	r2,a
      00000F E4               [12]  127 	clr	a
      000010 3E               [12]  128 	addc	a,r6
      000011 FB               [12]  129 	mov	r3,a
      000012 8F 04            [24]  130 	mov	ar4,r7
      000014 8A 82            [24]  131 	mov	dpl,r2
      000016 8B 83            [24]  132 	mov	dph,r3
      000018 8C F0            [24]  133 	mov	b,r4
      00001A E4               [12]  134 	clr	a
      00001B 12r00r00         [24]  135 	lcall	__gptrput
                                    136 ;	../contiki-sensinode/core/net/rime/collect-link-estimate.c:69: le->etx_accumulator = COLLECT_LINK_ESTIMATE_UNIT;
      00001E 8D 82            [24]  137 	mov	dpl,r5
      000020 8E 83            [24]  138 	mov	dph,r6
      000022 8F F0            [24]  139 	mov	b,r7
      000024 74 08            [12]  140 	mov	a,#0x08
      000026 12r00r00         [24]  141 	lcall	__gptrput
      000029 A3               [24]  142 	inc	dptr
      00002A E4               [12]  143 	clr	a
      00002B 12r00r00         [24]  144 	lcall	__gptrput
      00002E A3               [24]  145 	inc	dptr
      00002F 12r00r00         [24]  146 	lcall	__gptrput
      000032 A3               [24]  147 	inc	dptr
      000033 02r00r00         [24]  148 	ljmp	__gptrput
                                    149 ;------------------------------------------------------------
                                    150 ;Allocation info for local variables in function 'collect_link_estimate_update_tx'
                                    151 ;------------------------------------------------------------
                                    152 ;tx                        Allocated to stack - sp -9
                                    153 ;le                        Allocated to stack - sp -6
                                    154 ;sloc0                     Allocated to stack - sp -3
                                    155 ;------------------------------------------------------------
                                    156 ;	../contiki-sensinode/core/net/rime/collect-link-estimate.c:73: collect_link_estimate_update_tx(struct collect_link_estimate *le, uint8_t tx)
                                    157 ;	-----------------------------------------
                                    158 ;	 function collect_link_estimate_update_tx
                                    159 ;	-----------------------------------------
      000036                        160 _collect_link_estimate_update_tx:
      000036 C0 82            [24]  161 	push	dpl
      000038 C0 83            [24]  162 	push	dph
      00003A C0 F0            [24]  163 	push	b
      00003C E5 81            [12]  164 	mov	a,sp
      00003E 24 04            [12]  165 	add	a,#0x04
                                    166 ;	../contiki-sensinode/core/net/rime/collect-link-estimate.c:75: if(le == NULL) {
      000040 F5 81            [12]  167 	mov	sp,a
      000042 24 FA            [12]  168 	add	a,#0xfa
      000044 F8               [12]  169 	mov	r0,a
      000045 E6               [12]  170 	mov	a,@r0
      000046 08               [12]  171 	inc	r0
      000047 46               [12]  172 	orl	a,@r0
      000048 70 03            [24]  173 	jnz	00102$
                                    174 ;	../contiki-sensinode/core/net/rime/collect-link-estimate.c:76: return;
      00004A 02r01rA3         [24]  175 	ljmp	00111$
      00004D                        176 00102$:
                                    177 ;	../contiki-sensinode/core/net/rime/collect-link-estimate.c:78: if(tx == 0) {
      00004D E5 81            [12]  178 	mov	a,sp
      00004F 24 F7            [12]  179 	add	a,#0xf7
      000051 F8               [12]  180 	mov	r0,a
      000052 E6               [12]  181 	mov	a,@r0
      000053 70 03            [24]  182 	jnz	00104$
                                    183 ;	../contiki-sensinode/core/net/rime/collect-link-estimate.c:80: return;
      000055 02r01rA3         [24]  184 	ljmp	00111$
      000058                        185 00104$:
                                    186 ;	../contiki-sensinode/core/net/rime/collect-link-estimate.c:82: if(le != NULL) {
      000058 E5 81            [12]  187 	mov	a,sp
      00005A 24 FA            [12]  188 	add	a,#0xfa
      00005C F8               [12]  189 	mov	r0,a
      00005D E6               [12]  190 	mov	a,@r0
      00005E 08               [12]  191 	inc	r0
      00005F 46               [12]  192 	orl	a,@r0
      000060 70 03            [24]  193 	jnz	00130$
      000062 02r01rA3         [24]  194 	ljmp	00111$
      000065                        195 00130$:
                                    196 ;	../contiki-sensinode/core/net/rime/collect-link-estimate.c:83: if(le->num_estimates == 0) {
      000065 E5 81            [12]  197 	mov	a,sp
      000067 24 FA            [12]  198 	add	a,#0xfa
      000069 F8               [12]  199 	mov	r0,a
      00006A 74 04            [12]  200 	mov	a,#0x04
      00006C 26               [12]  201 	add	a,@r0
      00006D FA               [12]  202 	mov	r2,a
      00006E E4               [12]  203 	clr	a
      00006F 08               [12]  204 	inc	r0
      000070 36               [12]  205 	addc	a,@r0
      000071 FB               [12]  206 	mov	r3,a
      000072 08               [12]  207 	inc	r0
      000073 86 04            [24]  208 	mov	ar4,@r0
      000075 8A 82            [24]  209 	mov	dpl,r2
      000077 8B 83            [24]  210 	mov	dph,r3
      000079 8C F0            [24]  211 	mov	b,r4
      00007B 12r00r00         [24]  212 	lcall	__gptrget
      00007E 70 40            [24]  213 	jnz	00106$
                                    214 ;	../contiki-sensinode/core/net/rime/collect-link-estimate.c:84: le->etx_accumulator = tx * COLLECT_LINK_ESTIMATE_UNIT;
      000080 C0 02            [24]  215 	push	ar2
      000082 C0 03            [24]  216 	push	ar3
      000084 C0 04            [24]  217 	push	ar4
      000086 E5 81            [12]  218 	mov	a,sp
      000088 24 F4            [12]  219 	add	a,#0xf4
      00008A F8               [12]  220 	mov	r0,a
      00008B E6               [12]  221 	mov	a,@r0
      00008C 75 F0 08         [24]  222 	mov	b,#0x08
      00008F A4               [48]  223 	mul	ab
      000090 FB               [12]  224 	mov	r3,a
      000091 AC F0            [24]  225 	mov	r4,b
      000093 EC               [12]  226 	mov	a,r4
      000094 FA               [12]  227 	mov	r2,a
      000095 33               [12]  228 	rlc	a
      000096 95 E0            [12]  229 	subb	a,acc
      000098 FC               [12]  230 	mov	r4,a
      000099 FF               [12]  231 	mov	r7,a
      00009A E5 81            [12]  232 	mov	a,sp
      00009C 24 F7            [12]  233 	add	a,#0xf7
      00009E F8               [12]  234 	mov	r0,a
      00009F 86 82            [24]  235 	mov	dpl,@r0
      0000A1 08               [12]  236 	inc	r0
      0000A2 86 83            [24]  237 	mov	dph,@r0
      0000A4 08               [12]  238 	inc	r0
      0000A5 86 F0            [24]  239 	mov	b,@r0
      0000A7 EB               [12]  240 	mov	a,r3
      0000A8 12r00r00         [24]  241 	lcall	__gptrput
      0000AB A3               [24]  242 	inc	dptr
      0000AC EA               [12]  243 	mov	a,r2
      0000AD 12r00r00         [24]  244 	lcall	__gptrput
      0000B0 A3               [24]  245 	inc	dptr
      0000B1 EC               [12]  246 	mov	a,r4
      0000B2 12r00r00         [24]  247 	lcall	__gptrput
      0000B5 A3               [24]  248 	inc	dptr
      0000B6 EF               [12]  249 	mov	a,r7
      0000B7 12r00r00         [24]  250 	lcall	__gptrput
                                    251 ;	../contiki-sensinode/core/net/rime/collect-link-estimate.c:93: le->etx_accumulator * (COLLECT_LINK_ESTIMATE_UNIT -
      0000BA D0 04            [24]  252 	pop	ar4
      0000BC D0 03            [24]  253 	pop	ar3
      0000BE D0 02            [24]  254 	pop	ar2
                                    255 ;	../contiki-sensinode/core/net/rime/collect-link-estimate.c:84: le->etx_accumulator = tx * COLLECT_LINK_ESTIMATE_UNIT;
      0000C0                        256 00106$:
                                    257 ;	../contiki-sensinode/core/net/rime/collect-link-estimate.c:87: if(le->num_estimates < MAX_ESTIMATES) {
      0000C0 8A 82            [24]  258 	mov	dpl,r2
      0000C2 8B 83            [24]  259 	mov	dph,r3
      0000C4 8C F0            [24]  260 	mov	b,r4
      0000C6 12r00r00         [24]  261 	lcall	__gptrget
      0000C9 FF               [12]  262 	mov	r7,a
      0000CA BF FF 00         [24]  263 	cjne	r7,#0xFF,00132$
      0000CD                        264 00132$:
      0000CD 50 0B            [24]  265 	jnc	00108$
                                    266 ;	../contiki-sensinode/core/net/rime/collect-link-estimate.c:88: le->num_estimates++;
      0000CF 0F               [12]  267 	inc	r7
      0000D0 8A 82            [24]  268 	mov	dpl,r2
      0000D2 8B 83            [24]  269 	mov	dph,r3
      0000D4 8C F0            [24]  270 	mov	b,r4
      0000D6 EF               [12]  271 	mov	a,r7
      0000D7 12r00r00         [24]  272 	lcall	__gptrput
      0000DA                        273 00108$:
                                    274 ;	../contiki-sensinode/core/net/rime/collect-link-estimate.c:91: le->etx_accumulator = (((uint32_t)tx * COLLECT_LINK_ESTIMATE_UNIT) *
      0000DA E5 81            [12]  275 	mov	a,sp
      0000DC 24 F7            [12]  276 	add	a,#0xf7
      0000DE F8               [12]  277 	mov	r0,a
      0000DF 86 04            [24]  278 	mov	ar4,@r0
      0000E1 7D 00            [12]  279 	mov	r5,#0x00
      0000E3 7E 00            [12]  280 	mov	r6,#0x00
      0000E5 7F 00            [12]  281 	mov	r7,#0x00
      0000E7 C0 04            [24]  282 	push	ar4
      0000E9 C0 05            [24]  283 	push	ar5
      0000EB C0 06            [24]  284 	push	ar6
      0000ED C0 07            [24]  285 	push	ar7
                                    286 ;	../contiki-sensinode/core/net/rime/collect-link-estimate.c:93: le->etx_accumulator * (COLLECT_LINK_ESTIMATE_UNIT -
      0000EF 90 00 18         [24]  287 	mov	dptr,#(0x18&0x00ff)
      0000F2 E4               [12]  288 	clr	a
      0000F3 F5 F0            [12]  289 	mov	b,a
      0000F5 12r00r00         [24]  290 	lcall	__mullong
      0000F8 C8               [12]  291 	xch	a,r0
      0000F9 E5 81            [12]  292 	mov	a,sp
      0000FB 24 F9            [12]  293 	add	a,#0xf9
      0000FD C8               [12]  294 	xch	a,r0
      0000FE A6 82            [24]  295 	mov	@r0,dpl
      000100 08               [12]  296 	inc	r0
      000101 A6 83            [24]  297 	mov	@r0,dph
      000103 08               [12]  298 	inc	r0
      000104 A6 F0            [24]  299 	mov	@r0,b
      000106 08               [12]  300 	inc	r0
      000107 F6               [12]  301 	mov	@r0,a
      000108 E5 81            [12]  302 	mov	a,sp
      00010A 24 FC            [12]  303 	add	a,#0xfc
      00010C F5 81            [12]  304 	mov	sp,a
      00010E 24 FA            [12]  305 	add	a,#0xfa
      000110 F8               [12]  306 	mov	r0,a
      000111 86 82            [24]  307 	mov	dpl,@r0
      000113 08               [12]  308 	inc	r0
      000114 86 83            [24]  309 	mov	dph,@r0
      000116 08               [12]  310 	inc	r0
      000117 86 F0            [24]  311 	mov	b,@r0
      000119 12r00r00         [24]  312 	lcall	__gptrget
      00011C FA               [12]  313 	mov	r2,a
      00011D A3               [24]  314 	inc	dptr
      00011E 12r00r00         [24]  315 	lcall	__gptrget
      000121 FB               [12]  316 	mov	r3,a
      000122 A3               [24]  317 	inc	dptr
      000123 12r00r00         [24]  318 	lcall	__gptrget
      000126 FE               [12]  319 	mov	r6,a
      000127 A3               [24]  320 	inc	dptr
      000128 12r00r00         [24]  321 	lcall	__gptrget
      00012B FF               [12]  322 	mov	r7,a
      00012C C0 02            [24]  323 	push	ar2
      00012E C0 03            [24]  324 	push	ar3
      000130 C0 06            [24]  325 	push	ar6
      000132 C0 07            [24]  326 	push	ar7
      000134 90 00 05         [24]  327 	mov	dptr,#(0x05&0x00ff)
      000137 E4               [12]  328 	clr	a
      000138 F5 F0            [12]  329 	mov	b,a
      00013A 12r00r00         [24]  330 	lcall	__mullong
      00013D AC 82            [24]  331 	mov	r4,dpl
      00013F AD 83            [24]  332 	mov	r5,dph
      000141 AE F0            [24]  333 	mov	r6,b
      000143 FF               [12]  334 	mov	r7,a
      000144 E5 81            [12]  335 	mov	a,sp
      000146 24 FC            [12]  336 	add	a,#0xfc
      000148 F5 81            [12]  337 	mov	sp,a
      00014A 24 FD            [12]  338 	add	a,#0xfd
      00014C F8               [12]  339 	mov	r0,a
      00014D EC               [12]  340 	mov	a,r4
      00014E 26               [12]  341 	add	a,@r0
      00014F FC               [12]  342 	mov	r4,a
      000150 ED               [12]  343 	mov	a,r5
      000151 08               [12]  344 	inc	r0
      000152 36               [12]  345 	addc	a,@r0
      000153 FD               [12]  346 	mov	r5,a
      000154 EE               [12]  347 	mov	a,r6
      000155 08               [12]  348 	inc	r0
      000156 36               [12]  349 	addc	a,@r0
      000157 FE               [12]  350 	mov	r6,a
      000158 EF               [12]  351 	mov	a,r7
      000159 08               [12]  352 	inc	r0
      00015A 36               [12]  353 	addc	a,@r0
      00015B FF               [12]  354 	mov	r7,a
      00015C ED               [12]  355 	mov	a,r5
      00015D C4               [12]  356 	swap	a
      00015E 23               [12]  357 	rl	a
      00015F CC               [12]  358 	xch	a,r4
      000160 C4               [12]  359 	swap	a
      000161 23               [12]  360 	rl	a
      000162 54 1F            [12]  361 	anl	a,#0x1F
      000164 6C               [12]  362 	xrl	a,r4
      000165 CC               [12]  363 	xch	a,r4
      000166 54 1F            [12]  364 	anl	a,#0x1F
      000168 CC               [12]  365 	xch	a,r4
      000169 6C               [12]  366 	xrl	a,r4
      00016A CC               [12]  367 	xch	a,r4
      00016B FD               [12]  368 	mov	r5,a
      00016C EE               [12]  369 	mov	a,r6
      00016D C4               [12]  370 	swap	a
      00016E 23               [12]  371 	rl	a
      00016F 54 E0            [12]  372 	anl	a,#0xE0
      000171 4D               [12]  373 	orl	a,r5
      000172 FD               [12]  374 	mov	r5,a
      000173 EF               [12]  375 	mov	a,r7
      000174 C4               [12]  376 	swap	a
      000175 23               [12]  377 	rl	a
      000176 CE               [12]  378 	xch	a,r6
      000177 C4               [12]  379 	swap	a
      000178 23               [12]  380 	rl	a
      000179 54 1F            [12]  381 	anl	a,#0x1F
      00017B 6E               [12]  382 	xrl	a,r6
      00017C CE               [12]  383 	xch	a,r6
      00017D 54 1F            [12]  384 	anl	a,#0x1F
      00017F CE               [12]  385 	xch	a,r6
      000180 6E               [12]  386 	xrl	a,r6
      000181 CE               [12]  387 	xch	a,r6
      000182 FF               [12]  388 	mov	r7,a
      000183 E5 81            [12]  389 	mov	a,sp
      000185 24 FA            [12]  390 	add	a,#0xfa
      000187 F8               [12]  391 	mov	r0,a
      000188 86 82            [24]  392 	mov	dpl,@r0
      00018A 08               [12]  393 	inc	r0
      00018B 86 83            [24]  394 	mov	dph,@r0
      00018D 08               [12]  395 	inc	r0
      00018E 86 F0            [24]  396 	mov	b,@r0
      000190 EC               [12]  397 	mov	a,r4
      000191 12r00r00         [24]  398 	lcall	__gptrput
      000194 A3               [24]  399 	inc	dptr
      000195 ED               [12]  400 	mov	a,r5
      000196 12r00r00         [24]  401 	lcall	__gptrput
      000199 A3               [24]  402 	inc	dptr
      00019A EE               [12]  403 	mov	a,r6
      00019B 12r00r00         [24]  404 	lcall	__gptrput
      00019E A3               [24]  405 	inc	dptr
      00019F EF               [12]  406 	mov	a,r7
      0001A0 12r00r00         [24]  407 	lcall	__gptrput
      0001A3                        408 00111$:
      0001A3 E5 81            [12]  409 	mov	a,sp
      0001A5 24 F9            [12]  410 	add	a,#0xF9
      0001A7 F5 81            [12]  411 	mov	sp,a
      0001A9 22               [24]  412 	ret
                                    413 ;------------------------------------------------------------
                                    414 ;Allocation info for local variables in function 'collect_link_estimate_update_tx_fail'
                                    415 ;------------------------------------------------------------
                                    416 ;tx                        Allocated to stack - sp -2
                                    417 ;le                        Allocated to registers r5 r6 r7 
                                    418 ;------------------------------------------------------------
                                    419 ;	../contiki-sensinode/core/net/rime/collect-link-estimate.c:101: collect_link_estimate_update_tx_fail(struct collect_link_estimate *le,
                                    420 ;	-----------------------------------------
                                    421 ;	 function collect_link_estimate_update_tx_fail
                                    422 ;	-----------------------------------------
      0001AA                        423 _collect_link_estimate_update_tx_fail:
      0001AA AD 82            [24]  424 	mov	r5,dpl
      0001AC AE 83            [24]  425 	mov	r6,dph
      0001AE AF F0            [24]  426 	mov	r7,b
                                    427 ;	../contiki-sensinode/core/net/rime/collect-link-estimate.c:104: if(le == NULL) {
      0001B0 ED               [12]  428 	mov	a,r5
      0001B1 4E               [12]  429 	orl	a,r6
      0001B2 70 01            [24]  430 	jnz	00102$
                                    431 ;	../contiki-sensinode/core/net/rime/collect-link-estimate.c:105: return;
      0001B4 22               [24]  432 	ret
      0001B5                        433 00102$:
                                    434 ;	../contiki-sensinode/core/net/rime/collect-link-estimate.c:107: collect_link_estimate_update_tx(le, tx * 2);
      0001B5 A8 81            [24]  435 	mov	r0,sp
      0001B7 18               [12]  436 	dec	r0
      0001B8 18               [12]  437 	dec	r0
      0001B9 E6               [12]  438 	mov	a,@r0
      0001BA 25 E0            [12]  439 	add	a,acc
      0001BC FC               [12]  440 	mov	r4,a
      0001BD C0 04            [24]  441 	push	ar4
      0001BF 8D 82            [24]  442 	mov	dpl,r5
      0001C1 8E 83            [24]  443 	mov	dph,r6
      0001C3 8F F0            [24]  444 	mov	b,r7
      0001C5 12r00r36         [24]  445 	lcall	_collect_link_estimate_update_tx
      0001C8 15 81            [12]  446 	dec	sp
      0001CA 22               [24]  447 	ret
                                    448 ;------------------------------------------------------------
                                    449 ;Allocation info for local variables in function 'collect_link_estimate_update_rx'
                                    450 ;------------------------------------------------------------
                                    451 ;n                         Allocated to registers 
                                    452 ;------------------------------------------------------------
                                    453 ;	../contiki-sensinode/core/net/rime/collect-link-estimate.c:111: collect_link_estimate_update_rx(struct collect_link_estimate *n)
                                    454 ;	-----------------------------------------
                                    455 ;	 function collect_link_estimate_update_rx
                                    456 ;	-----------------------------------------
      0001CB                        457 _collect_link_estimate_update_rx:
                                    458 ;	../contiki-sensinode/core/net/rime/collect-link-estimate.c:114: }
      0001CB 22               [24]  459 	ret
                                    460 ;------------------------------------------------------------
                                    461 ;Allocation info for local variables in function 'collect_link_estimate'
                                    462 ;------------------------------------------------------------
                                    463 ;le                        Allocated to registers r5 r6 r7 
                                    464 ;------------------------------------------------------------
                                    465 ;	../contiki-sensinode/core/net/rime/collect-link-estimate.c:117: collect_link_estimate(struct collect_link_estimate *le)
                                    466 ;	-----------------------------------------
                                    467 ;	 function collect_link_estimate
                                    468 ;	-----------------------------------------
      0001CC                        469 _collect_link_estimate:
      0001CC AD 82            [24]  470 	mov	r5,dpl
      0001CE AE 83            [24]  471 	mov	r6,dph
      0001D0 AF F0            [24]  472 	mov	r7,b
                                    473 ;	../contiki-sensinode/core/net/rime/collect-link-estimate.c:119: if(le == NULL) {
      0001D2 ED               [12]  474 	mov	a,r5
      0001D3 4E               [12]  475 	orl	a,r6
      0001D4 70 04            [24]  476 	jnz	00102$
                                    477 ;	../contiki-sensinode/core/net/rime/collect-link-estimate.c:120: return 0;
      0001D6 90 00 00         [24]  478 	mov	dptr,#0x0000
      0001D9 22               [24]  479 	ret
      0001DA                        480 00102$:
                                    481 ;	../contiki-sensinode/core/net/rime/collect-link-estimate.c:122: if(le->num_estimates == 0) {
      0001DA 74 04            [12]  482 	mov	a,#0x04
      0001DC 2D               [12]  483 	add	a,r5
      0001DD FA               [12]  484 	mov	r2,a
      0001DE E4               [12]  485 	clr	a
      0001DF 3E               [12]  486 	addc	a,r6
      0001E0 FB               [12]  487 	mov	r3,a
      0001E1 8F 04            [24]  488 	mov	ar4,r7
      0001E3 8A 82            [24]  489 	mov	dpl,r2
      0001E5 8B 83            [24]  490 	mov	dph,r3
      0001E7 8C F0            [24]  491 	mov	b,r4
      0001E9 12r00r00         [24]  492 	lcall	__gptrget
      0001EC 70 04            [24]  493 	jnz	00104$
                                    494 ;	../contiki-sensinode/core/net/rime/collect-link-estimate.c:123: return INITIAL_LINK_ESTIMATE * COLLECT_LINK_ESTIMATE_UNIT;
      0001EE 90 00 80         [24]  495 	mov	dptr,#0x0080
      0001F1 22               [24]  496 	ret
      0001F2                        497 00104$:
                                    498 ;	../contiki-sensinode/core/net/rime/collect-link-estimate.c:126: return le->etx_accumulator;
      0001F2 8D 82            [24]  499 	mov	dpl,r5
      0001F4 8E 83            [24]  500 	mov	dph,r6
      0001F6 8F F0            [24]  501 	mov	b,r7
      0001F8 12r00r00         [24]  502 	lcall	__gptrget
      0001FB FD               [12]  503 	mov	r5,a
      0001FC A3               [24]  504 	inc	dptr
      0001FD 12r00r00         [24]  505 	lcall	__gptrget
      000200 FE               [12]  506 	mov	r6,a
      000201 A3               [24]  507 	inc	dptr
      000202 12r00r00         [24]  508 	lcall	__gptrget
      000205 A3               [24]  509 	inc	dptr
      000206 12r00r00         [24]  510 	lcall	__gptrget
      000209 8D 82            [24]  511 	mov	dpl,r5
      00020B 8E 83            [24]  512 	mov	dph,r6
      00020D 22               [24]  513 	ret
                                    514 ;------------------------------------------------------------
                                    515 ;Allocation info for local variables in function 'collect_link_estimate_num_estimates'
                                    516 ;------------------------------------------------------------
                                    517 ;le                        Allocated to registers r5 r6 r7 
                                    518 ;------------------------------------------------------------
                                    519 ;	../contiki-sensinode/core/net/rime/collect-link-estimate.c:130: collect_link_estimate_num_estimates(struct collect_link_estimate *le)
                                    520 ;	-----------------------------------------
                                    521 ;	 function collect_link_estimate_num_estimates
                                    522 ;	-----------------------------------------
      00020E                        523 _collect_link_estimate_num_estimates:
      00020E AD 82            [24]  524 	mov	r5,dpl
      000210 AE 83            [24]  525 	mov	r6,dph
      000212 AF F0            [24]  526 	mov	r7,b
                                    527 ;	../contiki-sensinode/core/net/rime/collect-link-estimate.c:132: if(le != NULL) {
      000214 ED               [12]  528 	mov	a,r5
      000215 4E               [12]  529 	orl	a,r6
      000216 60 18            [24]  530 	jz	00102$
                                    531 ;	../contiki-sensinode/core/net/rime/collect-link-estimate.c:133: return le->num_estimates;
      000218 74 04            [12]  532 	mov	a,#0x04
      00021A 2D               [12]  533 	add	a,r5
      00021B FD               [12]  534 	mov	r5,a
      00021C E4               [12]  535 	clr	a
      00021D 3E               [12]  536 	addc	a,r6
      00021E FE               [12]  537 	mov	r6,a
      00021F 8D 82            [24]  538 	mov	dpl,r5
      000221 8E 83            [24]  539 	mov	dph,r6
      000223 8F F0            [24]  540 	mov	b,r7
      000225 12r00r00         [24]  541 	lcall	__gptrget
      000228 FD               [12]  542 	mov	r5,a
      000229 7F 00            [12]  543 	mov	r7,#0x00
      00022B 8D 82            [24]  544 	mov	dpl,r5
      00022D 8F 83            [24]  545 	mov	dph,r7
      00022F 22               [24]  546 	ret
      000230                        547 00102$:
                                    548 ;	../contiki-sensinode/core/net/rime/collect-link-estimate.c:135: return 0;
      000230 90 00 00         [24]  549 	mov	dptr,#0x0000
      000233 22               [24]  550 	ret
                                    551 	.area CSEG    (CODE)
                                    552 	.area CONST   (CODE)
                                    553 	.area XINIT   (CODE)
                                    554 	.area CABS    (ABS,CODE)
