                                      1 ;--------------------------------------------------------
                                      2 ; File Created by SDCC : free open source ANSI-C Compiler
                                      3 ; Version 3.4.0 #8981 (Oct 24 2015) (Linux)
                                      4 ; This file was generated Sun Oct 25 01:52:09 2015
                                      5 ;--------------------------------------------------------
                                      6 	.module list
                                      7 	.optsdcc -mmcs51 --model-large
                                      8 	
                                      9 ;--------------------------------------------------------
                                     10 ; Public variables in this module
                                     11 ;--------------------------------------------------------
                                     12 	.globl _list_init
                                     13 	.globl _list_head
                                     14 	.globl _list_copy
                                     15 	.globl _list_tail
                                     16 	.globl _list_add
                                     17 	.globl _list_push
                                     18 	.globl _list_chop
                                     19 	.globl _list_pop
                                     20 	.globl _list_remove
                                     21 	.globl _list_length
                                     22 	.globl _list_insert
                                     23 	.globl _list_item_next
                                     24 ;--------------------------------------------------------
                                     25 ; special function registers
                                     26 ;--------------------------------------------------------
                                     27 	.area RSEG    (ABS,DATA)
      000000                         28 	.org 0x0000
                                     29 ;--------------------------------------------------------
                                     30 ; special function bits
                                     31 ;--------------------------------------------------------
                                     32 	.area RSEG    (ABS,DATA)
      000000                         33 	.org 0x0000
                                     34 ;--------------------------------------------------------
                                     35 ; overlayable register banks
                                     36 ;--------------------------------------------------------
                                     37 	.area REG_BANK_0	(REL,OVR,DATA)
      000000                         38 	.ds 8
                                     39 ;--------------------------------------------------------
                                     40 ; internal ram data
                                     41 ;--------------------------------------------------------
                                     42 	.area DSEG    (DATA)
                                     43 ;--------------------------------------------------------
                                     44 ; overlayable items in internal ram 
                                     45 ;--------------------------------------------------------
                                     46 ;--------------------------------------------------------
                                     47 ; indirectly addressable internal ram data
                                     48 ;--------------------------------------------------------
                                     49 	.area ISEG    (DATA)
                                     50 ;--------------------------------------------------------
                                     51 ; absolute internal ram data
                                     52 ;--------------------------------------------------------
                                     53 	.area IABS    (ABS,DATA)
                                     54 	.area IABS    (ABS,DATA)
                                     55 ;--------------------------------------------------------
                                     56 ; bit data
                                     57 ;--------------------------------------------------------
                                     58 	.area BSEG    (BIT)
                                     59 ;--------------------------------------------------------
                                     60 ; paged external ram data
                                     61 ;--------------------------------------------------------
                                     62 	.area PSEG    (PAG,XDATA)
                                     63 ;--------------------------------------------------------
                                     64 ; external ram data
                                     65 ;--------------------------------------------------------
                                     66 	.area XSEG    (XDATA)
                                     67 ;--------------------------------------------------------
                                     68 ; absolute external ram data
                                     69 ;--------------------------------------------------------
                                     70 	.area XABS    (ABS,XDATA)
                                     71 ;--------------------------------------------------------
                                     72 ; external initialized ram data
                                     73 ;--------------------------------------------------------
                                     74 	.area XISEG   (XDATA)
                                     75 	.area HOME    (CODE)
                                     76 	.area GSINIT0 (CODE)
                                     77 	.area GSINIT1 (CODE)
                                     78 	.area GSINIT2 (CODE)
                                     79 	.area GSINIT3 (CODE)
                                     80 	.area GSINIT4 (CODE)
                                     81 	.area GSINIT5 (CODE)
                                     82 	.area GSINIT  (CODE)
                                     83 	.area GSFINAL (CODE)
                                     84 	.area CSEG    (CODE)
                                     85 ;--------------------------------------------------------
                                     86 ; global & static initialisations
                                     87 ;--------------------------------------------------------
                                     88 	.area HOME    (CODE)
                                     89 	.area GSINIT  (CODE)
                                     90 	.area GSFINAL (CODE)
                                     91 	.area GSINIT  (CODE)
                                     92 ;--------------------------------------------------------
                                     93 ; Home
                                     94 ;--------------------------------------------------------
                                     95 	.area HOME    (CODE)
                                     96 	.area HOME    (CODE)
                                     97 ;--------------------------------------------------------
                                     98 ; code
                                     99 ;--------------------------------------------------------
                                    100 	.area CSEG    (CODE)
                                    101 ;------------------------------------------------------------
                                    102 ;Allocation info for local variables in function 'list_init'
                                    103 ;------------------------------------------------------------
                                    104 ;list                      Allocated to registers r5 r6 r7 
                                    105 ;------------------------------------------------------------
                                    106 ;	../contiki-sensinode/core/lib/list.c:65: list_init(list_t list)
                                    107 ;	-----------------------------------------
                                    108 ;	 function list_init
                                    109 ;	-----------------------------------------
      000000                        110 _list_init:
                           000007   111 	ar7 = 0x07
                           000006   112 	ar6 = 0x06
                           000005   113 	ar5 = 0x05
                           000004   114 	ar4 = 0x04
                           000003   115 	ar3 = 0x03
                           000002   116 	ar2 = 0x02
                           000001   117 	ar1 = 0x01
                           000000   118 	ar0 = 0x00
                                    119 ;	../contiki-sensinode/core/lib/list.c:67: *list = NULL;
      000000 E4               [12]  120 	clr	a
      000001 12r00r00         [24]  121 	lcall	__gptrput
      000004 A3               [24]  122 	inc	dptr
      000005 12r00r00         [24]  123 	lcall	__gptrput
      000008 A3               [24]  124 	inc	dptr
      000009 02r00r00         [24]  125 	ljmp	__gptrput
                                    126 ;------------------------------------------------------------
                                    127 ;Allocation info for local variables in function 'list_head'
                                    128 ;------------------------------------------------------------
                                    129 ;list                      Allocated to registers r5 r6 r7 
                                    130 ;------------------------------------------------------------
                                    131 ;	../contiki-sensinode/core/lib/list.c:82: list_head(list_t list)
                                    132 ;	-----------------------------------------
                                    133 ;	 function list_head
                                    134 ;	-----------------------------------------
      00000C                        135 _list_head:
                                    136 ;	../contiki-sensinode/core/lib/list.c:84: return *list;
      00000C 12r00r00         [24]  137 	lcall	__gptrget
      00000F FD               [12]  138 	mov	r5,a
      000010 A3               [24]  139 	inc	dptr
      000011 12r00r00         [24]  140 	lcall	__gptrget
      000014 FE               [12]  141 	mov	r6,a
      000015 A3               [24]  142 	inc	dptr
      000016 12r00r00         [24]  143 	lcall	__gptrget
      000019 FF               [12]  144 	mov	r7,a
      00001A 8D 82            [24]  145 	mov	dpl,r5
      00001C 8E 83            [24]  146 	mov	dph,r6
      00001E 8F F0            [24]  147 	mov	b,r7
      000020 22               [24]  148 	ret
                                    149 ;------------------------------------------------------------
                                    150 ;Allocation info for local variables in function 'list_copy'
                                    151 ;------------------------------------------------------------
                                    152 ;src                       Allocated to stack - sp -4
                                    153 ;dest                      Allocated to registers r5 r6 r7 
                                    154 ;------------------------------------------------------------
                                    155 ;	../contiki-sensinode/core/lib/list.c:100: list_copy(list_t dest, list_t src)
                                    156 ;	-----------------------------------------
                                    157 ;	 function list_copy
                                    158 ;	-----------------------------------------
      000021                        159 _list_copy:
      000021 AD 82            [24]  160 	mov	r5,dpl
      000023 AE 83            [24]  161 	mov	r6,dph
      000025 AF F0            [24]  162 	mov	r7,b
                                    163 ;	../contiki-sensinode/core/lib/list.c:102: *dest = *src;
      000027 E5 81            [12]  164 	mov	a,sp
      000029 24 FC            [12]  165 	add	a,#0xfc
      00002B F8               [12]  166 	mov	r0,a
      00002C 86 02            [24]  167 	mov	ar2,@r0
      00002E 08               [12]  168 	inc	r0
      00002F 86 03            [24]  169 	mov	ar3,@r0
      000031 08               [12]  170 	inc	r0
      000032 86 04            [24]  171 	mov	ar4,@r0
      000034 8A 82            [24]  172 	mov	dpl,r2
      000036 8B 83            [24]  173 	mov	dph,r3
      000038 8C F0            [24]  174 	mov	b,r4
      00003A 12r00r00         [24]  175 	lcall	__gptrget
      00003D FA               [12]  176 	mov	r2,a
      00003E A3               [24]  177 	inc	dptr
      00003F 12r00r00         [24]  178 	lcall	__gptrget
      000042 FB               [12]  179 	mov	r3,a
      000043 A3               [24]  180 	inc	dptr
      000044 12r00r00         [24]  181 	lcall	__gptrget
      000047 FC               [12]  182 	mov	r4,a
      000048 8D 82            [24]  183 	mov	dpl,r5
      00004A 8E 83            [24]  184 	mov	dph,r6
      00004C 8F F0            [24]  185 	mov	b,r7
      00004E EA               [12]  186 	mov	a,r2
      00004F 12r00r00         [24]  187 	lcall	__gptrput
      000052 A3               [24]  188 	inc	dptr
      000053 EB               [12]  189 	mov	a,r3
      000054 12r00r00         [24]  190 	lcall	__gptrput
      000057 A3               [24]  191 	inc	dptr
      000058 EC               [12]  192 	mov	a,r4
      000059 02r00r00         [24]  193 	ljmp	__gptrput
                                    194 ;------------------------------------------------------------
                                    195 ;Allocation info for local variables in function 'list_tail'
                                    196 ;------------------------------------------------------------
                                    197 ;list                      Allocated to registers r5 r6 r7 
                                    198 ;l                         Allocated to registers r5 r6 r7 
                                    199 ;------------------------------------------------------------
                                    200 ;	../contiki-sensinode/core/lib/list.c:117: list_tail(list_t list)
                                    201 ;	-----------------------------------------
                                    202 ;	 function list_tail
                                    203 ;	-----------------------------------------
      00005C                        204 _list_tail:
                                    205 ;	../contiki-sensinode/core/lib/list.c:121: if(*list == NULL) {
      00005C 12r00r00         [24]  206 	lcall	__gptrget
      00005F FD               [12]  207 	mov	r5,a
      000060 A3               [24]  208 	inc	dptr
      000061 12r00r00         [24]  209 	lcall	__gptrget
      000064 FE               [12]  210 	mov	r6,a
      000065 A3               [24]  211 	inc	dptr
      000066 12r00r00         [24]  212 	lcall	__gptrget
      000069 FF               [12]  213 	mov	r7,a
      00006A ED               [12]  214 	mov	a,r5
      00006B 4E               [12]  215 	orl	a,r6
                                    216 ;	../contiki-sensinode/core/lib/list.c:122: return NULL;
      00006C 70 06            [24]  217 	jnz	00102$
      00006E 90 00 00         [24]  218 	mov	dptr,#0x0000
      000071 F5 F0            [12]  219 	mov	b,a
      000073 22               [24]  220 	ret
      000074                        221 00102$:
                                    222 ;	../contiki-sensinode/core/lib/list.c:125: for(l = *list; l->next != NULL; l = l->next);
      000074                        223 00105$:
      000074 8D 82            [24]  224 	mov	dpl,r5
      000076 8E 83            [24]  225 	mov	dph,r6
      000078 8F F0            [24]  226 	mov	b,r7
      00007A 12r00r00         [24]  227 	lcall	__gptrget
      00007D FA               [12]  228 	mov	r2,a
      00007E A3               [24]  229 	inc	dptr
      00007F 12r00r00         [24]  230 	lcall	__gptrget
      000082 FB               [12]  231 	mov	r3,a
      000083 A3               [24]  232 	inc	dptr
      000084 12r00r00         [24]  233 	lcall	__gptrget
      000087 FC               [12]  234 	mov	r4,a
      000088 E4               [12]  235 	clr	a
      000089 C0 E0            [24]  236 	push	acc
      00008B C0 E0            [24]  237 	push	acc
      00008D C0 E0            [24]  238 	push	acc
      00008F 8A 82            [24]  239 	mov	dpl,r2
      000091 8B 83            [24]  240 	mov	dph,r3
      000093 8C F0            [24]  241 	mov	b,r4
      000095 12r00r00         [24]  242 	lcall	___gptr_cmp
      000098 15 81            [12]  243 	dec	sp
      00009A 15 81            [12]  244 	dec	sp
      00009C 15 81            [12]  245 	dec	sp
      00009E 60 08            [24]  246 	jz	00103$
      0000A0 8A 05            [24]  247 	mov	ar5,r2
      0000A2 8B 06            [24]  248 	mov	ar6,r3
      0000A4 8C 07            [24]  249 	mov	ar7,r4
      0000A6 80 CC            [24]  250 	sjmp	00105$
      0000A8                        251 00103$:
                                    252 ;	../contiki-sensinode/core/lib/list.c:127: return l;
      0000A8 8D 82            [24]  253 	mov	dpl,r5
      0000AA 8E 83            [24]  254 	mov	dph,r6
      0000AC 8F F0            [24]  255 	mov	b,r7
      0000AE 22               [24]  256 	ret
                                    257 ;------------------------------------------------------------
                                    258 ;Allocation info for local variables in function 'list_add'
                                    259 ;------------------------------------------------------------
                                    260 ;item                      Allocated to stack - sp -4
                                    261 ;list                      Allocated to registers r5 r6 r7 
                                    262 ;l                         Allocated to registers r2 r3 r4 
                                    263 ;------------------------------------------------------------
                                    264 ;	../contiki-sensinode/core/lib/list.c:142: list_add(list_t list, void *item)
                                    265 ;	-----------------------------------------
                                    266 ;	 function list_add
                                    267 ;	-----------------------------------------
      0000AF                        268 _list_add:
      0000AF AD 82            [24]  269 	mov	r5,dpl
      0000B1 AE 83            [24]  270 	mov	r6,dph
      0000B3 AF F0            [24]  271 	mov	r7,b
                                    272 ;	../contiki-sensinode/core/lib/list.c:147: list_remove(list, item);
      0000B5 C0 07            [24]  273 	push	ar7
      0000B7 C0 06            [24]  274 	push	ar6
      0000B9 C0 05            [24]  275 	push	ar5
      0000BB E5 81            [12]  276 	mov	a,sp
      0000BD 24 F9            [12]  277 	add	a,#0xf9
      0000BF F8               [12]  278 	mov	r0,a
      0000C0 E6               [12]  279 	mov	a,@r0
      0000C1 C0 E0            [24]  280 	push	acc
      0000C3 08               [12]  281 	inc	r0
      0000C4 E6               [12]  282 	mov	a,@r0
      0000C5 C0 E0            [24]  283 	push	acc
      0000C7 08               [12]  284 	inc	r0
      0000C8 E6               [12]  285 	mov	a,@r0
      0000C9 C0 E0            [24]  286 	push	acc
      0000CB 8D 82            [24]  287 	mov	dpl,r5
      0000CD 8E 83            [24]  288 	mov	dph,r6
      0000CF 8F F0            [24]  289 	mov	b,r7
      0000D1 12r03r96         [24]  290 	lcall	_list_remove
      0000D4 15 81            [12]  291 	dec	sp
      0000D6 15 81            [12]  292 	dec	sp
      0000D8 15 81            [12]  293 	dec	sp
      0000DA D0 05            [24]  294 	pop	ar5
      0000DC D0 06            [24]  295 	pop	ar6
      0000DE D0 07            [24]  296 	pop	ar7
                                    297 ;	../contiki-sensinode/core/lib/list.c:149: ((struct list *)item)->next = NULL;
      0000E0 E5 81            [12]  298 	mov	a,sp
      0000E2 24 FC            [12]  299 	add	a,#0xfc
      0000E4 F8               [12]  300 	mov	r0,a
      0000E5 86 02            [24]  301 	mov	ar2,@r0
      0000E7 08               [12]  302 	inc	r0
      0000E8 86 03            [24]  303 	mov	ar3,@r0
      0000EA 08               [12]  304 	inc	r0
      0000EB 86 04            [24]  305 	mov	ar4,@r0
      0000ED 8A 82            [24]  306 	mov	dpl,r2
      0000EF 8B 83            [24]  307 	mov	dph,r3
      0000F1 8C F0            [24]  308 	mov	b,r4
      0000F3 E4               [12]  309 	clr	a
      0000F4 12r00r00         [24]  310 	lcall	__gptrput
      0000F7 A3               [24]  311 	inc	dptr
      0000F8 12r00r00         [24]  312 	lcall	__gptrput
      0000FB A3               [24]  313 	inc	dptr
      0000FC 12r00r00         [24]  314 	lcall	__gptrput
                                    315 ;	../contiki-sensinode/core/lib/list.c:151: l = list_tail(list);
      0000FF 8D 82            [24]  316 	mov	dpl,r5
      000101 8E 83            [24]  317 	mov	dph,r6
      000103 8F F0            [24]  318 	mov	b,r7
      000105 C0 07            [24]  319 	push	ar7
      000107 C0 06            [24]  320 	push	ar6
      000109 C0 05            [24]  321 	push	ar5
      00010B 12r00r5C         [24]  322 	lcall	_list_tail
      00010E AA 82            [24]  323 	mov	r2,dpl
      000110 AB 83            [24]  324 	mov	r3,dph
      000112 AC F0            [24]  325 	mov	r4,b
      000114 D0 05            [24]  326 	pop	ar5
      000116 D0 06            [24]  327 	pop	ar6
      000118 D0 07            [24]  328 	pop	ar7
                                    329 ;	../contiki-sensinode/core/lib/list.c:153: if(l == NULL) {
      00011A EA               [12]  330 	mov	a,r2
      00011B 4B               [12]  331 	orl	a,r3
      00011C 70 1B            [24]  332 	jnz	00102$
                                    333 ;	../contiki-sensinode/core/lib/list.c:154: *list = item;
      00011E 8D 82            [24]  334 	mov	dpl,r5
      000120 8E 83            [24]  335 	mov	dph,r6
      000122 8F F0            [24]  336 	mov	b,r7
      000124 E5 81            [12]  337 	mov	a,sp
      000126 24 FC            [12]  338 	add	a,#0xfc
      000128 F8               [12]  339 	mov	r0,a
      000129 E6               [12]  340 	mov	a,@r0
      00012A 12r00r00         [24]  341 	lcall	__gptrput
      00012D A3               [24]  342 	inc	dptr
      00012E 08               [12]  343 	inc	r0
      00012F E6               [12]  344 	mov	a,@r0
      000130 12r00r00         [24]  345 	lcall	__gptrput
      000133 A3               [24]  346 	inc	dptr
      000134 08               [12]  347 	inc	r0
      000135 E6               [12]  348 	mov	a,@r0
      000136 02r00r00         [24]  349 	ljmp	__gptrput
      000139                        350 00102$:
                                    351 ;	../contiki-sensinode/core/lib/list.c:156: l->next = item;
      000139 E5 81            [12]  352 	mov	a,sp
      00013B 24 FC            [12]  353 	add	a,#0xfc
      00013D F8               [12]  354 	mov	r0,a
      00013E 86 05            [24]  355 	mov	ar5,@r0
      000140 08               [12]  356 	inc	r0
      000141 86 06            [24]  357 	mov	ar6,@r0
      000143 08               [12]  358 	inc	r0
      000144 86 07            [24]  359 	mov	ar7,@r0
      000146 8A 82            [24]  360 	mov	dpl,r2
      000148 8B 83            [24]  361 	mov	dph,r3
      00014A 8C F0            [24]  362 	mov	b,r4
      00014C ED               [12]  363 	mov	a,r5
      00014D 12r00r00         [24]  364 	lcall	__gptrput
      000150 A3               [24]  365 	inc	dptr
      000151 EE               [12]  366 	mov	a,r6
      000152 12r00r00         [24]  367 	lcall	__gptrput
      000155 A3               [24]  368 	inc	dptr
      000156 EF               [12]  369 	mov	a,r7
      000157 02r00r00         [24]  370 	ljmp	__gptrput
                                    371 ;------------------------------------------------------------
                                    372 ;Allocation info for local variables in function 'list_push'
                                    373 ;------------------------------------------------------------
                                    374 ;item                      Allocated to stack - sp -7
                                    375 ;list                      Allocated to stack - sp -2
                                    376 ;------------------------------------------------------------
                                    377 ;	../contiki-sensinode/core/lib/list.c:164: list_push(list_t list, void *item)
                                    378 ;	-----------------------------------------
                                    379 ;	 function list_push
                                    380 ;	-----------------------------------------
      00015A                        381 _list_push:
      00015A C0 82            [24]  382 	push	dpl
      00015C C0 83            [24]  383 	push	dph
      00015E C0 F0            [24]  384 	push	b
                                    385 ;	../contiki-sensinode/core/lib/list.c:169: list_remove(list, item);
      000160 E5 81            [12]  386 	mov	a,sp
      000162 24 F9            [12]  387 	add	a,#0xf9
      000164 F8               [12]  388 	mov	r0,a
      000165 E6               [12]  389 	mov	a,@r0
      000166 C0 E0            [24]  390 	push	acc
      000168 08               [12]  391 	inc	r0
      000169 E6               [12]  392 	mov	a,@r0
      00016A C0 E0            [24]  393 	push	acc
      00016C 08               [12]  394 	inc	r0
      00016D E6               [12]  395 	mov	a,@r0
      00016E C0 E0            [24]  396 	push	acc
      000170 E5 81            [12]  397 	mov	a,sp
      000172 24 FB            [12]  398 	add	a,#0xfb
      000174 F8               [12]  399 	mov	r0,a
      000175 86 82            [24]  400 	mov	dpl,@r0
      000177 08               [12]  401 	inc	r0
      000178 86 83            [24]  402 	mov	dph,@r0
      00017A 08               [12]  403 	inc	r0
      00017B 86 F0            [24]  404 	mov	b,@r0
      00017D 12r03r96         [24]  405 	lcall	_list_remove
      000180 15 81            [12]  406 	dec	sp
      000182 15 81            [12]  407 	dec	sp
      000184 15 81            [12]  408 	dec	sp
                                    409 ;	../contiki-sensinode/core/lib/list.c:171: ((struct list *)item)->next = *list;
      000186 E5 81            [12]  410 	mov	a,sp
      000188 24 F9            [12]  411 	add	a,#0xf9
      00018A F8               [12]  412 	mov	r0,a
      00018B 86 02            [24]  413 	mov	ar2,@r0
      00018D 08               [12]  414 	inc	r0
      00018E 86 03            [24]  415 	mov	ar3,@r0
      000190 08               [12]  416 	inc	r0
      000191 86 04            [24]  417 	mov	ar4,@r0
      000193 A8 81            [24]  418 	mov	r0,sp
      000195 18               [12]  419 	dec	r0
      000196 18               [12]  420 	dec	r0
      000197 86 82            [24]  421 	mov	dpl,@r0
      000199 08               [12]  422 	inc	r0
      00019A 86 83            [24]  423 	mov	dph,@r0
      00019C 08               [12]  424 	inc	r0
      00019D 86 F0            [24]  425 	mov	b,@r0
      00019F 12r00r00         [24]  426 	lcall	__gptrget
      0001A2 FD               [12]  427 	mov	r5,a
      0001A3 A3               [24]  428 	inc	dptr
      0001A4 12r00r00         [24]  429 	lcall	__gptrget
      0001A7 FE               [12]  430 	mov	r6,a
      0001A8 A3               [24]  431 	inc	dptr
      0001A9 12r00r00         [24]  432 	lcall	__gptrget
      0001AC FF               [12]  433 	mov	r7,a
      0001AD 8A 82            [24]  434 	mov	dpl,r2
      0001AF 8B 83            [24]  435 	mov	dph,r3
      0001B1 8C F0            [24]  436 	mov	b,r4
      0001B3 ED               [12]  437 	mov	a,r5
      0001B4 12r00r00         [24]  438 	lcall	__gptrput
      0001B7 A3               [24]  439 	inc	dptr
      0001B8 EE               [12]  440 	mov	a,r6
      0001B9 12r00r00         [24]  441 	lcall	__gptrput
      0001BC A3               [24]  442 	inc	dptr
      0001BD EF               [12]  443 	mov	a,r7
      0001BE 12r00r00         [24]  444 	lcall	__gptrput
                                    445 ;	../contiki-sensinode/core/lib/list.c:172: *list = item;
      0001C1 A8 81            [24]  446 	mov	r0,sp
      0001C3 18               [12]  447 	dec	r0
      0001C4 18               [12]  448 	dec	r0
      0001C5 86 82            [24]  449 	mov	dpl,@r0
      0001C7 08               [12]  450 	inc	r0
      0001C8 86 83            [24]  451 	mov	dph,@r0
      0001CA 08               [12]  452 	inc	r0
      0001CB 86 F0            [24]  453 	mov	b,@r0
      0001CD E5 81            [12]  454 	mov	a,sp
      0001CF 24 F9            [12]  455 	add	a,#0xf9
      0001D1 F9               [12]  456 	mov	r1,a
      0001D2 E7               [12]  457 	mov	a,@r1
      0001D3 12r00r00         [24]  458 	lcall	__gptrput
      0001D6 A3               [24]  459 	inc	dptr
      0001D7 09               [12]  460 	inc	r1
      0001D8 E7               [12]  461 	mov	a,@r1
      0001D9 12r00r00         [24]  462 	lcall	__gptrput
      0001DC A3               [24]  463 	inc	dptr
      0001DD 09               [12]  464 	inc	r1
      0001DE E7               [12]  465 	mov	a,@r1
      0001DF 12r00r00         [24]  466 	lcall	__gptrput
      0001E2 15 81            [12]  467 	dec	sp
      0001E4 15 81            [12]  468 	dec	sp
      0001E6 15 81            [12]  469 	dec	sp
      0001E8 22               [24]  470 	ret
                                    471 ;------------------------------------------------------------
                                    472 ;Allocation info for local variables in function 'list_chop'
                                    473 ;------------------------------------------------------------
                                    474 ;list                      Allocated to stack - sp -5
                                    475 ;l                         Allocated to stack - sp -2
                                    476 ;r                         Allocated to registers r5 r6 r7 
                                    477 ;------------------------------------------------------------
                                    478 ;	../contiki-sensinode/core/lib/list.c:185: list_chop(list_t list)
                                    479 ;	-----------------------------------------
                                    480 ;	 function list_chop
                                    481 ;	-----------------------------------------
      0001E9                        482 _list_chop:
      0001E9 C0 82            [24]  483 	push	dpl
      0001EB C0 83            [24]  484 	push	dph
      0001ED C0 F0            [24]  485 	push	b
      0001EF 05 81            [12]  486 	inc	sp
      0001F1 05 81            [12]  487 	inc	sp
      0001F3 05 81            [12]  488 	inc	sp
                                    489 ;	../contiki-sensinode/core/lib/list.c:189: if(*list == NULL) {
      0001F5 E5 81            [12]  490 	mov	a,sp
      0001F7 24 FB            [12]  491 	add	a,#0xfb
      0001F9 F8               [12]  492 	mov	r0,a
      0001FA 86 82            [24]  493 	mov	dpl,@r0
      0001FC 08               [12]  494 	inc	r0
      0001FD 86 83            [24]  495 	mov	dph,@r0
      0001FF 08               [12]  496 	inc	r0
      000200 86 F0            [24]  497 	mov	b,@r0
      000202 12r00r00         [24]  498 	lcall	__gptrget
      000205 FA               [12]  499 	mov	r2,a
      000206 A3               [24]  500 	inc	dptr
      000207 12r00r00         [24]  501 	lcall	__gptrget
      00020A FB               [12]  502 	mov	r3,a
      00020B A3               [24]  503 	inc	dptr
      00020C 12r00r00         [24]  504 	lcall	__gptrget
      00020F FC               [12]  505 	mov	r4,a
      000210 EA               [12]  506 	mov	a,r2
      000211 4B               [12]  507 	orl	a,r3
                                    508 ;	../contiki-sensinode/core/lib/list.c:190: return NULL;
      000212 70 08            [24]  509 	jnz	00102$
      000214 90 00 00         [24]  510 	mov	dptr,#0x0000
      000217 F5 F0            [12]  511 	mov	b,a
      000219 02r03r24         [24]  512 	ljmp	00109$
      00021C                        513 00102$:
                                    514 ;	../contiki-sensinode/core/lib/list.c:192: if(((struct list *)*list)->next == NULL) {
      00021C 8A 05            [24]  515 	mov	ar5,r2
      00021E 8B 06            [24]  516 	mov	ar6,r3
      000220 8C 07            [24]  517 	mov	ar7,r4
      000222 8D 82            [24]  518 	mov	dpl,r5
      000224 8E 83            [24]  519 	mov	dph,r6
      000226 8F F0            [24]  520 	mov	b,r7
      000228 12r00r00         [24]  521 	lcall	__gptrget
      00022B FD               [12]  522 	mov	r5,a
      00022C A3               [24]  523 	inc	dptr
      00022D 12r00r00         [24]  524 	lcall	__gptrget
      000230 FE               [12]  525 	mov	r6,a
      000231 A3               [24]  526 	inc	dptr
      000232 12r00r00         [24]  527 	lcall	__gptrget
      000235 FF               [12]  528 	mov	r7,a
      000236 ED               [12]  529 	mov	a,r5
      000237 4E               [12]  530 	orl	a,r6
      000238 70 40            [24]  531 	jnz	00104$
                                    532 ;	../contiki-sensinode/core/lib/list.c:193: l = *list;
      00023A 8A 05            [24]  533 	mov	ar5,r2
      00023C 8B 06            [24]  534 	mov	ar6,r3
      00023E 8C 07            [24]  535 	mov	ar7,r4
      000240 A8 81            [24]  536 	mov	r0,sp
      000242 18               [12]  537 	dec	r0
      000243 18               [12]  538 	dec	r0
      000244 A6 05            [24]  539 	mov	@r0,ar5
      000246 08               [12]  540 	inc	r0
      000247 A6 06            [24]  541 	mov	@r0,ar6
      000249 08               [12]  542 	inc	r0
      00024A A6 07            [24]  543 	mov	@r0,ar7
                                    544 ;	../contiki-sensinode/core/lib/list.c:194: *list = NULL;
      00024C E5 81            [12]  545 	mov	a,sp
      00024E 24 FB            [12]  546 	add	a,#0xfb
      000250 F8               [12]  547 	mov	r0,a
      000251 86 82            [24]  548 	mov	dpl,@r0
      000253 08               [12]  549 	inc	r0
      000254 86 83            [24]  550 	mov	dph,@r0
      000256 08               [12]  551 	inc	r0
      000257 86 F0            [24]  552 	mov	b,@r0
      000259 E4               [12]  553 	clr	a
      00025A 12r00r00         [24]  554 	lcall	__gptrput
      00025D A3               [24]  555 	inc	dptr
      00025E 12r00r00         [24]  556 	lcall	__gptrput
      000261 A3               [24]  557 	inc	dptr
      000262 12r00r00         [24]  558 	lcall	__gptrput
                                    559 ;	../contiki-sensinode/core/lib/list.c:195: return l;
      000265 A8 81            [24]  560 	mov	r0,sp
      000267 18               [12]  561 	dec	r0
      000268 18               [12]  562 	dec	r0
      000269 86 05            [24]  563 	mov	ar5,@r0
      00026B 08               [12]  564 	inc	r0
      00026C 86 06            [24]  565 	mov	ar6,@r0
      00026E 08               [12]  566 	inc	r0
      00026F 86 07            [24]  567 	mov	ar7,@r0
      000271 8D 82            [24]  568 	mov	dpl,r5
      000273 8E 83            [24]  569 	mov	dph,r6
      000275 8F F0            [24]  570 	mov	b,r7
      000277 02r03r24         [24]  571 	ljmp	00109$
      00027A                        572 00104$:
                                    573 ;	../contiki-sensinode/core/lib/list.c:198: for(l = *list; l->next->next != NULL; l = l->next);
      00027A A8 81            [24]  574 	mov	r0,sp
      00027C 18               [12]  575 	dec	r0
      00027D 18               [12]  576 	dec	r0
      00027E A6 02            [24]  577 	mov	@r0,ar2
      000280 08               [12]  578 	inc	r0
      000281 A6 03            [24]  579 	mov	@r0,ar3
      000283 08               [12]  580 	inc	r0
      000284 A6 04            [24]  581 	mov	@r0,ar4
      000286                        582 00107$:
      000286 A8 81            [24]  583 	mov	r0,sp
      000288 18               [12]  584 	dec	r0
      000289 18               [12]  585 	dec	r0
      00028A 86 82            [24]  586 	mov	dpl,@r0
      00028C 08               [12]  587 	inc	r0
      00028D 86 83            [24]  588 	mov	dph,@r0
      00028F 08               [12]  589 	inc	r0
      000290 86 F0            [24]  590 	mov	b,@r0
      000292 12r00r00         [24]  591 	lcall	__gptrget
      000295 FD               [12]  592 	mov	r5,a
      000296 A3               [24]  593 	inc	dptr
      000297 12r00r00         [24]  594 	lcall	__gptrget
      00029A FE               [12]  595 	mov	r6,a
      00029B A3               [24]  596 	inc	dptr
      00029C 12r00r00         [24]  597 	lcall	__gptrget
      00029F FF               [12]  598 	mov	r7,a
      0002A0 8D 82            [24]  599 	mov	dpl,r5
      0002A2 8E 83            [24]  600 	mov	dph,r6
      0002A4 8F F0            [24]  601 	mov	b,r7
      0002A6 12r00r00         [24]  602 	lcall	__gptrget
      0002A9 FD               [12]  603 	mov	r5,a
      0002AA A3               [24]  604 	inc	dptr
      0002AB 12r00r00         [24]  605 	lcall	__gptrget
      0002AE FE               [12]  606 	mov	r6,a
      0002AF A3               [24]  607 	inc	dptr
      0002B0 12r00r00         [24]  608 	lcall	__gptrget
      0002B3 FF               [12]  609 	mov	r7,a
      0002B4 E4               [12]  610 	clr	a
      0002B5 C0 E0            [24]  611 	push	acc
      0002B7 C0 E0            [24]  612 	push	acc
      0002B9 C0 E0            [24]  613 	push	acc
      0002BB 8D 82            [24]  614 	mov	dpl,r5
      0002BD 8E 83            [24]  615 	mov	dph,r6
      0002BF 8F F0            [24]  616 	mov	b,r7
      0002C1 12r00r00         [24]  617 	lcall	___gptr_cmp
      0002C4 15 81            [12]  618 	dec	sp
      0002C6 15 81            [12]  619 	dec	sp
      0002C8 15 81            [12]  620 	dec	sp
      0002CA 60 20            [24]  621 	jz	00105$
      0002CC A8 81            [24]  622 	mov	r0,sp
      0002CE 18               [12]  623 	dec	r0
      0002CF 18               [12]  624 	dec	r0
      0002D0 86 82            [24]  625 	mov	dpl,@r0
      0002D2 08               [12]  626 	inc	r0
      0002D3 86 83            [24]  627 	mov	dph,@r0
      0002D5 08               [12]  628 	inc	r0
      0002D6 86 F0            [24]  629 	mov	b,@r0
      0002D8 12r00r00         [24]  630 	lcall	__gptrget
      0002DB 18               [12]  631 	dec	r0
      0002DC 18               [12]  632 	dec	r0
      0002DD F6               [12]  633 	mov	@r0,a
      0002DE A3               [24]  634 	inc	dptr
      0002DF 12r00r00         [24]  635 	lcall	__gptrget
      0002E2 08               [12]  636 	inc	r0
      0002E3 F6               [12]  637 	mov	@r0,a
      0002E4 A3               [24]  638 	inc	dptr
      0002E5 12r00r00         [24]  639 	lcall	__gptrget
      0002E8 08               [12]  640 	inc	r0
      0002E9 F6               [12]  641 	mov	@r0,a
      0002EA 80 9A            [24]  642 	sjmp	00107$
      0002EC                        643 00105$:
                                    644 ;	../contiki-sensinode/core/lib/list.c:200: r = l->next;
      0002EC A8 81            [24]  645 	mov	r0,sp
      0002EE 18               [12]  646 	dec	r0
      0002EF 18               [12]  647 	dec	r0
      0002F0 86 82            [24]  648 	mov	dpl,@r0
      0002F2 08               [12]  649 	inc	r0
      0002F3 86 83            [24]  650 	mov	dph,@r0
      0002F5 08               [12]  651 	inc	r0
      0002F6 86 F0            [24]  652 	mov	b,@r0
      0002F8 12r00r00         [24]  653 	lcall	__gptrget
      0002FB FD               [12]  654 	mov	r5,a
      0002FC A3               [24]  655 	inc	dptr
      0002FD 12r00r00         [24]  656 	lcall	__gptrget
      000300 FE               [12]  657 	mov	r6,a
      000301 A3               [24]  658 	inc	dptr
      000302 12r00r00         [24]  659 	lcall	__gptrget
      000305 FF               [12]  660 	mov	r7,a
                                    661 ;	../contiki-sensinode/core/lib/list.c:201: l->next = NULL;
      000306 A8 81            [24]  662 	mov	r0,sp
      000308 18               [12]  663 	dec	r0
      000309 18               [12]  664 	dec	r0
      00030A 86 82            [24]  665 	mov	dpl,@r0
      00030C 08               [12]  666 	inc	r0
      00030D 86 83            [24]  667 	mov	dph,@r0
      00030F 08               [12]  668 	inc	r0
      000310 86 F0            [24]  669 	mov	b,@r0
      000312 E4               [12]  670 	clr	a
      000313 12r00r00         [24]  671 	lcall	__gptrput
      000316 A3               [24]  672 	inc	dptr
      000317 12r00r00         [24]  673 	lcall	__gptrput
      00031A A3               [24]  674 	inc	dptr
      00031B 12r00r00         [24]  675 	lcall	__gptrput
                                    676 ;	../contiki-sensinode/core/lib/list.c:203: return r;
      00031E 8D 82            [24]  677 	mov	dpl,r5
      000320 8E 83            [24]  678 	mov	dph,r6
      000322 8F F0            [24]  679 	mov	b,r7
      000324                        680 00109$:
      000324 E5 81            [12]  681 	mov	a,sp
      000326 24 FA            [12]  682 	add	a,#0xFA
      000328 F5 81            [12]  683 	mov	sp,a
      00032A 22               [24]  684 	ret
                                    685 ;------------------------------------------------------------
                                    686 ;Allocation info for local variables in function 'list_pop'
                                    687 ;------------------------------------------------------------
                                    688 ;list                      Allocated to registers r5 r6 r7 
                                    689 ;l                         Allocated to stack - sp -2
                                    690 ;------------------------------------------------------------
                                    691 ;	../contiki-sensinode/core/lib/list.c:217: list_pop(list_t list)
                                    692 ;	-----------------------------------------
                                    693 ;	 function list_pop
                                    694 ;	-----------------------------------------
      00032B                        695 _list_pop:
      00032B 05 81            [12]  696 	inc	sp
      00032D 05 81            [12]  697 	inc	sp
      00032F 05 81            [12]  698 	inc	sp
                                    699 ;	../contiki-sensinode/core/lib/list.c:220: l = *list;
      000331 AD 82            [24]  700 	mov	r5,dpl
      000333 AE 83            [24]  701 	mov	r6,dph
      000335 AF F0            [24]  702 	mov	r7,b
      000337 12r00r00         [24]  703 	lcall	__gptrget
      00033A FA               [12]  704 	mov	r2,a
      00033B A3               [24]  705 	inc	dptr
      00033C 12r00r00         [24]  706 	lcall	__gptrget
      00033F FB               [12]  707 	mov	r3,a
      000340 A3               [24]  708 	inc	dptr
      000341 12r00r00         [24]  709 	lcall	__gptrget
      000344 FC               [12]  710 	mov	r4,a
      000345 A8 81            [24]  711 	mov	r0,sp
      000347 18               [12]  712 	dec	r0
      000348 18               [12]  713 	dec	r0
      000349 A6 02            [24]  714 	mov	@r0,ar2
      00034B 08               [12]  715 	inc	r0
      00034C A6 03            [24]  716 	mov	@r0,ar3
      00034E 08               [12]  717 	inc	r0
      00034F A6 04            [24]  718 	mov	@r0,ar4
                                    719 ;	../contiki-sensinode/core/lib/list.c:221: if(*list != NULL) {
      000351 EA               [12]  720 	mov	a,r2
      000352 4B               [12]  721 	orl	a,r3
      000353 60 28            [24]  722 	jz	00102$
                                    723 ;	../contiki-sensinode/core/lib/list.c:222: *list = ((struct list *)*list)->next;
      000355 8A 82            [24]  724 	mov	dpl,r2
      000357 8B 83            [24]  725 	mov	dph,r3
      000359 8C F0            [24]  726 	mov	b,r4
      00035B 12r00r00         [24]  727 	lcall	__gptrget
      00035E FA               [12]  728 	mov	r2,a
      00035F A3               [24]  729 	inc	dptr
      000360 12r00r00         [24]  730 	lcall	__gptrget
      000363 FB               [12]  731 	mov	r3,a
      000364 A3               [24]  732 	inc	dptr
      000365 12r00r00         [24]  733 	lcall	__gptrget
      000368 FC               [12]  734 	mov	r4,a
      000369 8D 82            [24]  735 	mov	dpl,r5
      00036B 8E 83            [24]  736 	mov	dph,r6
      00036D 8F F0            [24]  737 	mov	b,r7
      00036F EA               [12]  738 	mov	a,r2
      000370 12r00r00         [24]  739 	lcall	__gptrput
      000373 A3               [24]  740 	inc	dptr
      000374 EB               [12]  741 	mov	a,r3
      000375 12r00r00         [24]  742 	lcall	__gptrput
      000378 A3               [24]  743 	inc	dptr
      000379 EC               [12]  744 	mov	a,r4
      00037A 12r00r00         [24]  745 	lcall	__gptrput
      00037D                        746 00102$:
                                    747 ;	../contiki-sensinode/core/lib/list.c:225: return l;
      00037D A8 81            [24]  748 	mov	r0,sp
      00037F 18               [12]  749 	dec	r0
      000380 18               [12]  750 	dec	r0
      000381 86 05            [24]  751 	mov	ar5,@r0
      000383 08               [12]  752 	inc	r0
      000384 86 06            [24]  753 	mov	ar6,@r0
      000386 08               [12]  754 	inc	r0
      000387 86 07            [24]  755 	mov	ar7,@r0
      000389 8D 82            [24]  756 	mov	dpl,r5
      00038B 8E 83            [24]  757 	mov	dph,r6
      00038D 8F F0            [24]  758 	mov	b,r7
      00038F 15 81            [12]  759 	dec	sp
      000391 15 81            [12]  760 	dec	sp
      000393 15 81            [12]  761 	dec	sp
      000395 22               [24]  762 	ret
                                    763 ;------------------------------------------------------------
                                    764 ;Allocation info for local variables in function 'list_remove'
                                    765 ;------------------------------------------------------------
                                    766 ;item                      Allocated to stack - sp -10
                                    767 ;list                      Allocated to stack - sp -5
                                    768 ;l                         Allocated to stack - sp -2
                                    769 ;r                         Allocated to registers r5 r6 r7 
                                    770 ;------------------------------------------------------------
                                    771 ;	../contiki-sensinode/core/lib/list.c:239: list_remove(list_t list, void *item)
                                    772 ;	-----------------------------------------
                                    773 ;	 function list_remove
                                    774 ;	-----------------------------------------
      000396                        775 _list_remove:
      000396 C0 82            [24]  776 	push	dpl
      000398 C0 83            [24]  777 	push	dph
      00039A C0 F0            [24]  778 	push	b
      00039C 05 81            [12]  779 	inc	sp
      00039E 05 81            [12]  780 	inc	sp
      0003A0 05 81            [12]  781 	inc	sp
                                    782 ;	../contiki-sensinode/core/lib/list.c:243: if(*list == NULL) {
      0003A2 E5 81            [12]  783 	mov	a,sp
      0003A4 24 FB            [12]  784 	add	a,#0xfb
      0003A6 F8               [12]  785 	mov	r0,a
      0003A7 86 82            [24]  786 	mov	dpl,@r0
      0003A9 08               [12]  787 	inc	r0
      0003AA 86 83            [24]  788 	mov	dph,@r0
      0003AC 08               [12]  789 	inc	r0
      0003AD 86 F0            [24]  790 	mov	b,@r0
      0003AF 12r00r00         [24]  791 	lcall	__gptrget
      0003B2 FA               [12]  792 	mov	r2,a
      0003B3 A3               [24]  793 	inc	dptr
      0003B4 12r00r00         [24]  794 	lcall	__gptrget
      0003B7 FB               [12]  795 	mov	r3,a
      0003B8 A3               [24]  796 	inc	dptr
      0003B9 12r00r00         [24]  797 	lcall	__gptrget
      0003BC FC               [12]  798 	mov	r4,a
      0003BD EA               [12]  799 	mov	a,r2
      0003BE 4B               [12]  800 	orl	a,r3
      0003BF 70 03            [24]  801 	jnz	00102$
                                    802 ;	../contiki-sensinode/core/lib/list.c:244: return;
      0003C1 02r04rE7         [24]  803 	ljmp	00112$
      0003C4                        804 00102$:
                                    805 ;	../contiki-sensinode/core/lib/list.c:247: r = NULL;
      0003C4 7D 00            [12]  806 	mov	r5,#0x00
      0003C6 7E 00            [12]  807 	mov	r6,#0x00
      0003C8 7F 00            [12]  808 	mov	r7,#0x00
                                    809 ;	../contiki-sensinode/core/lib/list.c:248: for(l = *list; l != NULL; l = l->next) {
      0003CA A8 81            [24]  810 	mov	r0,sp
      0003CC 18               [12]  811 	dec	r0
      0003CD 18               [12]  812 	dec	r0
      0003CE A6 02            [24]  813 	mov	@r0,ar2
      0003D0 08               [12]  814 	inc	r0
      0003D1 A6 03            [24]  815 	mov	@r0,ar3
      0003D3 08               [12]  816 	inc	r0
      0003D4 A6 04            [24]  817 	mov	@r0,ar4
      0003D6                        818 00110$:
      0003D6 A8 81            [24]  819 	mov	r0,sp
      0003D8 18               [12]  820 	dec	r0
      0003D9 18               [12]  821 	dec	r0
      0003DA E4               [12]  822 	clr	a
      0003DB C0 E0            [24]  823 	push	acc
      0003DD C0 E0            [24]  824 	push	acc
      0003DF C0 E0            [24]  825 	push	acc
      0003E1 86 82            [24]  826 	mov	dpl,@r0
      0003E3 08               [12]  827 	inc	r0
      0003E4 86 83            [24]  828 	mov	dph,@r0
      0003E6 08               [12]  829 	inc	r0
      0003E7 86 F0            [24]  830 	mov	b,@r0
      0003E9 12r00r00         [24]  831 	lcall	___gptr_cmp
      0003EC 15 81            [12]  832 	dec	sp
      0003EE 15 81            [12]  833 	dec	sp
      0003F0 15 81            [12]  834 	dec	sp
      0003F2 70 03            [24]  835 	jnz	00130$
      0003F4 02r04rE7         [24]  836 	ljmp	00112$
      0003F7                        837 00130$:
                                    838 ;	../contiki-sensinode/core/lib/list.c:249: if(l == item) {
      0003F7 C0 05            [24]  839 	push	ar5
      0003F9 C0 06            [24]  840 	push	ar6
      0003FB C0 07            [24]  841 	push	ar7
      0003FD E5 81            [12]  842 	mov	a,sp
      0003FF 24 F3            [12]  843 	add	a,#0xf3
      000401 F8               [12]  844 	mov	r0,a
      000402 86 05            [24]  845 	mov	ar5,@r0
      000404 08               [12]  846 	inc	r0
      000405 86 06            [24]  847 	mov	ar6,@r0
      000407 08               [12]  848 	inc	r0
      000408 86 07            [24]  849 	mov	ar7,@r0
      00040A E5 81            [12]  850 	mov	a,sp
      00040C 24 FB            [12]  851 	add	a,#0xfb
      00040E F8               [12]  852 	mov	r0,a
      00040F C0 05            [24]  853 	push	ar5
      000411 C0 06            [24]  854 	push	ar6
      000413 C0 07            [24]  855 	push	ar7
      000415 86 82            [24]  856 	mov	dpl,@r0
      000417 08               [12]  857 	inc	r0
      000418 86 83            [24]  858 	mov	dph,@r0
      00041A 08               [12]  859 	inc	r0
      00041B 86 F0            [24]  860 	mov	b,@r0
      00041D 12r00r00         [24]  861 	lcall	___gptr_cmp
      000420 15 81            [12]  862 	dec	sp
      000422 15 81            [12]  863 	dec	sp
      000424 15 81            [12]  864 	dec	sp
      000426 60 09            [24]  865 	jz	00132$
      000428 D0 07            [24]  866 	pop	ar7
      00042A D0 06            [24]  867 	pop	ar6
      00042C D0 05            [24]  868 	pop	ar5
      00042E 02r04rBA         [24]  869 	ljmp	00107$
      000431                        870 00132$:
      000431 D0 07            [24]  871 	pop	ar7
      000433 D0 06            [24]  872 	pop	ar6
      000435 D0 05            [24]  873 	pop	ar5
                                    874 ;	../contiki-sensinode/core/lib/list.c:250: if(r == NULL) {
      000437 ED               [12]  875 	mov	a,r5
      000438 4E               [12]  876 	orl	a,r6
      000439 70 37            [24]  877 	jnz	00104$
                                    878 ;	../contiki-sensinode/core/lib/list.c:252: *list = l->next;
      00043B A8 81            [24]  879 	mov	r0,sp
      00043D 18               [12]  880 	dec	r0
      00043E 18               [12]  881 	dec	r0
      00043F 86 82            [24]  882 	mov	dpl,@r0
      000441 08               [12]  883 	inc	r0
      000442 86 83            [24]  884 	mov	dph,@r0
      000444 08               [12]  885 	inc	r0
      000445 86 F0            [24]  886 	mov	b,@r0
      000447 12r00r00         [24]  887 	lcall	__gptrget
      00044A FA               [12]  888 	mov	r2,a
      00044B A3               [24]  889 	inc	dptr
      00044C 12r00r00         [24]  890 	lcall	__gptrget
      00044F FB               [12]  891 	mov	r3,a
      000450 A3               [24]  892 	inc	dptr
      000451 12r00r00         [24]  893 	lcall	__gptrget
      000454 FC               [12]  894 	mov	r4,a
      000455 E5 81            [12]  895 	mov	a,sp
      000457 24 FB            [12]  896 	add	a,#0xfb
      000459 F8               [12]  897 	mov	r0,a
      00045A 86 82            [24]  898 	mov	dpl,@r0
      00045C 08               [12]  899 	inc	r0
      00045D 86 83            [24]  900 	mov	dph,@r0
      00045F 08               [12]  901 	inc	r0
      000460 86 F0            [24]  902 	mov	b,@r0
      000462 EA               [12]  903 	mov	a,r2
      000463 12r00r00         [24]  904 	lcall	__gptrput
      000466 A3               [24]  905 	inc	dptr
      000467 EB               [12]  906 	mov	a,r3
      000468 12r00r00         [24]  907 	lcall	__gptrput
      00046B A3               [24]  908 	inc	dptr
      00046C EC               [12]  909 	mov	a,r4
      00046D 12r00r00         [24]  910 	lcall	__gptrput
      000470 80 2E            [24]  911 	sjmp	00105$
      000472                        912 00104$:
                                    913 ;	../contiki-sensinode/core/lib/list.c:255: r->next = l->next;
      000472 A8 81            [24]  914 	mov	r0,sp
      000474 18               [12]  915 	dec	r0
      000475 18               [12]  916 	dec	r0
      000476 86 82            [24]  917 	mov	dpl,@r0
      000478 08               [12]  918 	inc	r0
      000479 86 83            [24]  919 	mov	dph,@r0
      00047B 08               [12]  920 	inc	r0
      00047C 86 F0            [24]  921 	mov	b,@r0
      00047E 12r00r00         [24]  922 	lcall	__gptrget
      000481 FA               [12]  923 	mov	r2,a
      000482 A3               [24]  924 	inc	dptr
      000483 12r00r00         [24]  925 	lcall	__gptrget
      000486 FB               [12]  926 	mov	r3,a
      000487 A3               [24]  927 	inc	dptr
      000488 12r00r00         [24]  928 	lcall	__gptrget
      00048B FC               [12]  929 	mov	r4,a
      00048C 8D 82            [24]  930 	mov	dpl,r5
      00048E 8E 83            [24]  931 	mov	dph,r6
      000490 8F F0            [24]  932 	mov	b,r7
      000492 EA               [12]  933 	mov	a,r2
      000493 12r00r00         [24]  934 	lcall	__gptrput
      000496 A3               [24]  935 	inc	dptr
      000497 EB               [12]  936 	mov	a,r3
      000498 12r00r00         [24]  937 	lcall	__gptrput
      00049B A3               [24]  938 	inc	dptr
      00049C EC               [12]  939 	mov	a,r4
      00049D 12r00r00         [24]  940 	lcall	__gptrput
      0004A0                        941 00105$:
                                    942 ;	../contiki-sensinode/core/lib/list.c:257: l->next = NULL;
      0004A0 A8 81            [24]  943 	mov	r0,sp
      0004A2 18               [12]  944 	dec	r0
      0004A3 18               [12]  945 	dec	r0
      0004A4 86 82            [24]  946 	mov	dpl,@r0
      0004A6 08               [12]  947 	inc	r0
      0004A7 86 83            [24]  948 	mov	dph,@r0
      0004A9 08               [12]  949 	inc	r0
      0004AA 86 F0            [24]  950 	mov	b,@r0
      0004AC E4               [12]  951 	clr	a
      0004AD 12r00r00         [24]  952 	lcall	__gptrput
      0004B0 A3               [24]  953 	inc	dptr
      0004B1 12r00r00         [24]  954 	lcall	__gptrput
      0004B4 A3               [24]  955 	inc	dptr
      0004B5 12r00r00         [24]  956 	lcall	__gptrput
                                    957 ;	../contiki-sensinode/core/lib/list.c:258: return;
      0004B8 80 2D            [24]  958 	sjmp	00112$
      0004BA                        959 00107$:
                                    960 ;	../contiki-sensinode/core/lib/list.c:260: r = l;
      0004BA A8 81            [24]  961 	mov	r0,sp
      0004BC 18               [12]  962 	dec	r0
      0004BD 18               [12]  963 	dec	r0
      0004BE 86 05            [24]  964 	mov	ar5,@r0
      0004C0 08               [12]  965 	inc	r0
      0004C1 86 06            [24]  966 	mov	ar6,@r0
      0004C3 08               [12]  967 	inc	r0
      0004C4 86 07            [24]  968 	mov	ar7,@r0
                                    969 ;	../contiki-sensinode/core/lib/list.c:248: for(l = *list; l != NULL; l = l->next) {
      0004C6 A8 81            [24]  970 	mov	r0,sp
      0004C8 18               [12]  971 	dec	r0
      0004C9 18               [12]  972 	dec	r0
      0004CA 86 82            [24]  973 	mov	dpl,@r0
      0004CC 08               [12]  974 	inc	r0
      0004CD 86 83            [24]  975 	mov	dph,@r0
      0004CF 08               [12]  976 	inc	r0
      0004D0 86 F0            [24]  977 	mov	b,@r0
      0004D2 12r00r00         [24]  978 	lcall	__gptrget
      0004D5 18               [12]  979 	dec	r0
      0004D6 18               [12]  980 	dec	r0
      0004D7 F6               [12]  981 	mov	@r0,a
      0004D8 A3               [24]  982 	inc	dptr
      0004D9 12r00r00         [24]  983 	lcall	__gptrget
      0004DC 08               [12]  984 	inc	r0
      0004DD F6               [12]  985 	mov	@r0,a
      0004DE A3               [24]  986 	inc	dptr
      0004DF 12r00r00         [24]  987 	lcall	__gptrget
      0004E2 08               [12]  988 	inc	r0
      0004E3 F6               [12]  989 	mov	@r0,a
      0004E4 02r03rD6         [24]  990 	ljmp	00110$
      0004E7                        991 00112$:
      0004E7 E5 81            [12]  992 	mov	a,sp
      0004E9 24 FA            [12]  993 	add	a,#0xFA
      0004EB F5 81            [12]  994 	mov	sp,a
      0004ED 22               [24]  995 	ret
                                    996 ;------------------------------------------------------------
                                    997 ;Allocation info for local variables in function 'list_length'
                                    998 ;------------------------------------------------------------
                                    999 ;list                      Allocated to registers r5 r6 r7 
                                   1000 ;l                         Allocated to registers r5 r6 r7 
                                   1001 ;n                         Allocated to registers r3 r4 
                                   1002 ;------------------------------------------------------------
                                   1003 ;	../contiki-sensinode/core/lib/list.c:274: list_length(list_t list)
                                   1004 ;	-----------------------------------------
                                   1005 ;	 function list_length
                                   1006 ;	-----------------------------------------
      0004EE                       1007 _list_length:
                                   1008 ;	../contiki-sensinode/core/lib/list.c:279: for(l = *list; l != NULL; l = l->next) {
      0004EE 12r00r00         [24] 1009 	lcall	__gptrget
      0004F1 FD               [12] 1010 	mov	r5,a
      0004F2 A3               [24] 1011 	inc	dptr
      0004F3 12r00r00         [24] 1012 	lcall	__gptrget
      0004F6 FE               [12] 1013 	mov	r6,a
      0004F7 A3               [24] 1014 	inc	dptr
      0004F8 12r00r00         [24] 1015 	lcall	__gptrget
      0004FB FF               [12] 1016 	mov	r7,a
      0004FC 7B 00            [12] 1017 	mov	r3,#0x00
      0004FE 7C 00            [12] 1018 	mov	r4,#0x00
      000500                       1019 00103$:
      000500 E4               [12] 1020 	clr	a
      000501 C0 E0            [24] 1021 	push	acc
      000503 C0 E0            [24] 1022 	push	acc
      000505 C0 E0            [24] 1023 	push	acc
      000507 8D 82            [24] 1024 	mov	dpl,r5
      000509 8E 83            [24] 1025 	mov	dph,r6
      00050B 8F F0            [24] 1026 	mov	b,r7
      00050D 12r00r00         [24] 1027 	lcall	___gptr_cmp
      000510 15 81            [12] 1028 	dec	sp
      000512 15 81            [12] 1029 	dec	sp
      000514 15 81            [12] 1030 	dec	sp
      000516 60 1B            [24] 1031 	jz	00101$
                                   1032 ;	../contiki-sensinode/core/lib/list.c:280: ++n;
      000518 0B               [12] 1033 	inc	r3
      000519 BB 00 01         [24] 1034 	cjne	r3,#0x00,00115$
      00051C 0C               [12] 1035 	inc	r4
      00051D                       1036 00115$:
                                   1037 ;	../contiki-sensinode/core/lib/list.c:279: for(l = *list; l != NULL; l = l->next) {
      00051D 8D 82            [24] 1038 	mov	dpl,r5
      00051F 8E 83            [24] 1039 	mov	dph,r6
      000521 8F F0            [24] 1040 	mov	b,r7
      000523 12r00r00         [24] 1041 	lcall	__gptrget
      000526 FD               [12] 1042 	mov	r5,a
      000527 A3               [24] 1043 	inc	dptr
      000528 12r00r00         [24] 1044 	lcall	__gptrget
      00052B FE               [12] 1045 	mov	r6,a
      00052C A3               [24] 1046 	inc	dptr
      00052D 12r00r00         [24] 1047 	lcall	__gptrget
      000530 FF               [12] 1048 	mov	r7,a
      000531 80 CD            [24] 1049 	sjmp	00103$
      000533                       1050 00101$:
                                   1051 ;	../contiki-sensinode/core/lib/list.c:283: return n;
      000533 8B 82            [24] 1052 	mov	dpl,r3
      000535 8C 83            [24] 1053 	mov	dph,r4
      000537 22               [24] 1054 	ret
                                   1055 ;------------------------------------------------------------
                                   1056 ;Allocation info for local variables in function 'list_insert'
                                   1057 ;------------------------------------------------------------
                                   1058 ;previtem                  Allocated to stack - sp -7
                                   1059 ;newitem                   Allocated to stack - sp -10
                                   1060 ;list                      Allocated to registers r5 r6 r7 
                                   1061 ;sloc0                     Allocated to stack - sp -2
                                   1062 ;------------------------------------------------------------
                                   1063 ;	../contiki-sensinode/core/lib/list.c:302: list_insert(list_t list, void *previtem, void *newitem)
                                   1064 ;	-----------------------------------------
                                   1065 ;	 function list_insert
                                   1066 ;	-----------------------------------------
      000538                       1067 _list_insert:
      000538 05 81            [12] 1068 	inc	sp
      00053A 05 81            [12] 1069 	inc	sp
      00053C 05 81            [12] 1070 	inc	sp
      00053E AD 82            [24] 1071 	mov	r5,dpl
      000540 AE 83            [24] 1072 	mov	r6,dph
      000542 AF F0            [24] 1073 	mov	r7,b
                                   1074 ;	../contiki-sensinode/core/lib/list.c:304: if(previtem == NULL) {
      000544 E5 81            [12] 1075 	mov	a,sp
      000546 24 F9            [12] 1076 	add	a,#0xf9
      000548 F8               [12] 1077 	mov	r0,a
      000549 E6               [12] 1078 	mov	a,@r0
      00054A 08               [12] 1079 	inc	r0
      00054B 46               [12] 1080 	orl	a,@r0
      00054C 70 21            [24] 1081 	jnz	00102$
                                   1082 ;	../contiki-sensinode/core/lib/list.c:305: list_push(list, newitem);
      00054E E5 81            [12] 1083 	mov	a,sp
      000550 24 F6            [12] 1084 	add	a,#0xf6
      000552 F8               [12] 1085 	mov	r0,a
      000553 E6               [12] 1086 	mov	a,@r0
      000554 C0 E0            [24] 1087 	push	acc
      000556 08               [12] 1088 	inc	r0
      000557 E6               [12] 1089 	mov	a,@r0
      000558 C0 E0            [24] 1090 	push	acc
      00055A 08               [12] 1091 	inc	r0
      00055B E6               [12] 1092 	mov	a,@r0
      00055C C0 E0            [24] 1093 	push	acc
      00055E 8D 82            [24] 1094 	mov	dpl,r5
      000560 8E 83            [24] 1095 	mov	dph,r6
      000562 8F F0            [24] 1096 	mov	b,r7
      000564 12r01r5A         [24] 1097 	lcall	_list_push
      000567 15 81            [12] 1098 	dec	sp
      000569 15 81            [12] 1099 	dec	sp
      00056B 15 81            [12] 1100 	dec	sp
      00056D 80 6F            [24] 1101 	sjmp	00104$
      00056F                       1102 00102$:
                                   1103 ;	../contiki-sensinode/core/lib/list.c:308: ((struct list *)newitem)->next = ((struct list *)previtem)->next;
      00056F E5 81            [12] 1104 	mov	a,sp
      000571 24 F6            [12] 1105 	add	a,#0xf6
      000573 F8               [12] 1106 	mov	r0,a
      000574 A9 81            [24] 1107 	mov	r1,sp
      000576 19               [12] 1108 	dec	r1
      000577 19               [12] 1109 	dec	r1
      000578 E6               [12] 1110 	mov	a,@r0
      000579 F7               [12] 1111 	mov	@r1,a
      00057A 08               [12] 1112 	inc	r0
      00057B 09               [12] 1113 	inc	r1
      00057C E6               [12] 1114 	mov	a,@r0
      00057D F7               [12] 1115 	mov	@r1,a
      00057E 08               [12] 1116 	inc	r0
      00057F 09               [12] 1117 	inc	r1
      000580 E6               [12] 1118 	mov	a,@r0
      000581 F7               [12] 1119 	mov	@r1,a
      000582 E5 81            [12] 1120 	mov	a,sp
      000584 24 F9            [12] 1121 	add	a,#0xf9
      000586 F8               [12] 1122 	mov	r0,a
      000587 86 02            [24] 1123 	mov	ar2,@r0
      000589 08               [12] 1124 	inc	r0
      00058A 86 03            [24] 1125 	mov	ar3,@r0
      00058C 08               [12] 1126 	inc	r0
      00058D 86 04            [24] 1127 	mov	ar4,@r0
      00058F 8A 82            [24] 1128 	mov	dpl,r2
      000591 8B 83            [24] 1129 	mov	dph,r3
      000593 8C F0            [24] 1130 	mov	b,r4
      000595 12r00r00         [24] 1131 	lcall	__gptrget
      000598 FD               [12] 1132 	mov	r5,a
      000599 A3               [24] 1133 	inc	dptr
      00059A 12r00r00         [24] 1134 	lcall	__gptrget
      00059D FE               [12] 1135 	mov	r6,a
      00059E A3               [24] 1136 	inc	dptr
      00059F 12r00r00         [24] 1137 	lcall	__gptrget
      0005A2 FF               [12] 1138 	mov	r7,a
      0005A3 A8 81            [24] 1139 	mov	r0,sp
      0005A5 18               [12] 1140 	dec	r0
      0005A6 18               [12] 1141 	dec	r0
      0005A7 86 82            [24] 1142 	mov	dpl,@r0
      0005A9 08               [12] 1143 	inc	r0
      0005AA 86 83            [24] 1144 	mov	dph,@r0
      0005AC 08               [12] 1145 	inc	r0
      0005AD 86 F0            [24] 1146 	mov	b,@r0
      0005AF ED               [12] 1147 	mov	a,r5
      0005B0 12r00r00         [24] 1148 	lcall	__gptrput
      0005B3 A3               [24] 1149 	inc	dptr
      0005B4 EE               [12] 1150 	mov	a,r6
      0005B5 12r00r00         [24] 1151 	lcall	__gptrput
      0005B8 A3               [24] 1152 	inc	dptr
      0005B9 EF               [12] 1153 	mov	a,r7
      0005BA 12r00r00         [24] 1154 	lcall	__gptrput
                                   1155 ;	../contiki-sensinode/core/lib/list.c:309: ((struct list *)previtem)->next = newitem;
      0005BD E5 81            [12] 1156 	mov	a,sp
      0005BF 24 F6            [12] 1157 	add	a,#0xf6
      0005C1 F8               [12] 1158 	mov	r0,a
      0005C2 86 05            [24] 1159 	mov	ar5,@r0
      0005C4 08               [12] 1160 	inc	r0
      0005C5 86 06            [24] 1161 	mov	ar6,@r0
      0005C7 08               [12] 1162 	inc	r0
      0005C8 86 07            [24] 1163 	mov	ar7,@r0
      0005CA 8A 82            [24] 1164 	mov	dpl,r2
      0005CC 8B 83            [24] 1165 	mov	dph,r3
      0005CE 8C F0            [24] 1166 	mov	b,r4
      0005D0 ED               [12] 1167 	mov	a,r5
      0005D1 12r00r00         [24] 1168 	lcall	__gptrput
      0005D4 A3               [24] 1169 	inc	dptr
      0005D5 EE               [12] 1170 	mov	a,r6
      0005D6 12r00r00         [24] 1171 	lcall	__gptrput
      0005D9 A3               [24] 1172 	inc	dptr
      0005DA EF               [12] 1173 	mov	a,r7
      0005DB 12r00r00         [24] 1174 	lcall	__gptrput
      0005DE                       1175 00104$:
      0005DE 15 81            [12] 1176 	dec	sp
      0005E0 15 81            [12] 1177 	dec	sp
      0005E2 15 81            [12] 1178 	dec	sp
      0005E4 22               [24] 1179 	ret
                                   1180 ;------------------------------------------------------------
                                   1181 ;Allocation info for local variables in function 'list_item_next'
                                   1182 ;------------------------------------------------------------
                                   1183 ;item                      Allocated to registers r5 r6 r7 
                                   1184 ;------------------------------------------------------------
                                   1185 ;	../contiki-sensinode/core/lib/list.c:324: list_item_next(void *item)
                                   1186 ;	-----------------------------------------
                                   1187 ;	 function list_item_next
                                   1188 ;	-----------------------------------------
      0005E5                       1189 _list_item_next:
      0005E5 AD 82            [24] 1190 	mov	r5,dpl
      0005E7 AE 83            [24] 1191 	mov	r6,dph
      0005E9 AF F0            [24] 1192 	mov	r7,b
                                   1193 ;	../contiki-sensinode/core/lib/list.c:326: return item == NULL? NULL: ((struct list *)item)->next;
      0005EB ED               [12] 1194 	mov	a,r5
      0005EC 4E               [12] 1195 	orl	a,r6
      0005ED B4 01 00         [24] 1196 	cjne	a,#0x01,00108$
      0005F0                       1197 00108$:
      0005F0 E4               [12] 1198 	clr	a
      0005F1 33               [12] 1199 	rlc	a
      0005F2 FC               [12] 1200 	mov	r4,a
      0005F3 60 08            [24] 1201 	jz	00103$
      0005F5 7A 00            [12] 1202 	mov	r2,#0x00
      0005F7 7B 00            [12] 1203 	mov	r3,#0x00
      0005F9 7C 00            [12] 1204 	mov	r4,#0x00
      0005FB 80 14            [24] 1205 	sjmp	00104$
      0005FD                       1206 00103$:
      0005FD 8D 82            [24] 1207 	mov	dpl,r5
      0005FF 8E 83            [24] 1208 	mov	dph,r6
      000601 8F F0            [24] 1209 	mov	b,r7
      000603 12r00r00         [24] 1210 	lcall	__gptrget
      000606 FA               [12] 1211 	mov	r2,a
      000607 A3               [24] 1212 	inc	dptr
      000608 12r00r00         [24] 1213 	lcall	__gptrget
      00060B FB               [12] 1214 	mov	r3,a
      00060C A3               [24] 1215 	inc	dptr
      00060D 12r00r00         [24] 1216 	lcall	__gptrget
      000610 FC               [12] 1217 	mov	r4,a
      000611                       1218 00104$:
      000611 8A 82            [24] 1219 	mov	dpl,r2
      000613 8B 83            [24] 1220 	mov	dph,r3
      000615 8C F0            [24] 1221 	mov	b,r4
      000617 22               [24] 1222 	ret
                                   1223 	.area CSEG    (CODE)
                                   1224 	.area CONST   (CODE)
                                   1225 	.area XINIT   (CODE)
                                   1226 	.area CABS    (ABS,CODE)
