;--------------------------------------------------------
; File Created by SDCC : free open source ANSI-C Compiler
; Version 3.4.0 #8981 (Oct 24 2015) (Linux)
; This file was generated Sun Oct 25 01:52:03 2015
;--------------------------------------------------------
	.module rudolph1
	.optsdcc -mmcs51 --model-large
	
;--------------------------------------------------------
; Public variables in this module
;--------------------------------------------------------
	.globl _trickle_send
	.globl _trickle_close
	.globl _trickle_open
	.globl _ipolite_send
	.globl _ipolite_close
	.globl _ipolite_open
	.globl _packetbuf_hdralloc
	.globl _packetbuf_set_datalen
	.globl _packetbuf_hdrptr
	.globl _packetbuf_dataptr
	.globl _packetbuf_clear
	.globl _ctimer_stop
	.globl _ctimer_set
	.globl _ACTIVE
	.globl _TX_BYTE
	.globl _RX_BYTE
	.globl _ERR
	.globl _FE
	.globl _SLAVE
	.globl _RE
	.globl _MODE
	.globl _T3OVFIF
	.globl _T3CH0IF
	.globl _T3CH1IF
	.globl _T4OVFIF
	.globl _T4CH0IF
	.globl _T4CH1IF
	.globl _OVFIM
	.globl _B_0
	.globl _B_1
	.globl _B_2
	.globl _B_3
	.globl _B_4
	.globl _B_5
	.globl _B_6
	.globl _B_7
	.globl _P2IF
	.globl _UTX0IF
	.globl _UTX1IF
	.globl _P1IF
	.globl _WDTIF
	.globl _ACC_0
	.globl _ACC_1
	.globl _ACC_2
	.globl _ACC_3
	.globl _ACC_4
	.globl _ACC_5
	.globl _ACC_6
	.globl _ACC_7
	.globl _P
	.globl _F1
	.globl _OV
	.globl _RS0
	.globl _RS1
	.globl _F0
	.globl _AC
	.globl _CY
	.globl _DMAIF
	.globl _T1IF
	.globl _T2IF
	.globl _T3IF
	.globl _T4IF
	.globl _P0IF
	.globl _STIF
	.globl _DMAIE
	.globl _T1IE
	.globl _T2IE
	.globl _T3IE
	.globl _T4IE
	.globl _P0IE
	.globl _RFERRIE
	.globl _ADCIE
	.globl _URX0IE
	.globl _URX1IE
	.globl _ENCIE
	.globl _STIE
	.globl _EA
	.globl _P2_0
	.globl _P2_1
	.globl _P2_2
	.globl _P2_3
	.globl _P2_4
	.globl _P2_5
	.globl _P2_6
	.globl _P2_7
	.globl _ENCIF_0
	.globl _ENCIF_1
	.globl _P1_0
	.globl _P1_1
	.globl _P1_2
	.globl _P1_3
	.globl _P1_4
	.globl _P1_5
	.globl _P1_6
	.globl _P1_7
	.globl _IT0
	.globl _RFERRIF
	.globl _IT1
	.globl _URX0IF
	.globl _ADCIF
	.globl _URX1IF
	.globl _P0_0
	.globl _P0_1
	.globl _P0_2
	.globl _P0_3
	.globl _P0_4
	.globl _P0_5
	.globl _P0_6
	.globl _P0_7
	.globl _WDCTL
	.globl _U1GCR
	.globl _U1UCR
	.globl _U1BAUD
	.globl _U1DBUF
	.globl _U1CSR
	.globl _U0GCR
	.globl _U0UCR
	.globl _U0BAUD
	.globl _U0DBUF
	.globl _U0CSR
	.globl _TIMIF
	.globl _T4CC1
	.globl _T4CCTL1
	.globl _T4CC0
	.globl _T4CCTL0
	.globl _T4CTL
	.globl _T4CNT
	.globl _T3CC1
	.globl _T3CCTL1
	.globl _T3CC0
	.globl _T3CCTL0
	.globl _T3CTL
	.globl _T3CNT
	.globl _T2MSEL
	.globl _T2IRQM
	.globl _T2MOVF2
	.globl _T2MOVF1
	.globl _T2MOVF0
	.globl _T2M1
	.globl _T2M0
	.globl _T2IRQF
	.globl _T2EVTCFG
	.globl _T2CTRL
	.globl _T1STAT
	.globl _T1CCTL2
	.globl _T1CCTL1
	.globl _T1CCTL0
	.globl _T1CTL
	.globl _T1CNTH
	.globl _T1CNTL
	.globl _T1CC2H
	.globl _T1CC2L
	.globl _T1CC1H
	.globl _T1CC1L
	.globl _T1CC0H
	.globl _T1CC0L
	.globl _CLKCONSTA
	.globl _CLKCONCMD
	.globl _SLEEPSTA
	.globl _SLEEPCMD
	.globl _STLOAD
	.globl _ST2
	.globl _ST1
	.globl _ST0
	.globl _RFERRF
	.globl _RFIRQF0
	.globl _RFST
	.globl _RFD
	.globl _RFIRQF1
	.globl _PSBANK
	.globl _FMAP
	.globl _MEMCTR
	.globl __XPAGE
	.globl _MPAGE
	.globl _PMUX
	.globl _P2DIR
	.globl _P1DIR
	.globl _P0DIR
	.globl _P2INP
	.globl _P1INP
	.globl _P2SEL
	.globl _P1SEL
	.globl _P0SEL
	.globl _APCFG
	.globl _PERCFG
	.globl _P0INP
	.globl _P2IEN
	.globl _P1IEN
	.globl _P0IEN
	.globl _PICTL
	.globl _P2IFG
	.globl _P1IFG
	.globl _P0IFG
	.globl _DMAREQ
	.globl _DMAARM
	.globl _DMA0CFGH
	.globl _DMA0CFGL
	.globl _DMA1CFGH
	.globl _DMA1CFGL
	.globl _DMAIRQ
	.globl _ENCCS
	.globl _ENCDO
	.globl _ENCDI
	.globl _RNDH
	.globl _RNDL
	.globl _ADCH
	.globl _ADCL
	.globl _ADCCON3
	.globl _ADCCON2
	.globl _ADCCON1
	.globl _B
	.globl _IRCON2
	.globl _ACC
	.globl _PSW
	.globl _IRCON
	.globl _IP1
	.globl _IEN1
	.globl _IP0
	.globl _IEN0
	.globl _P2
	.globl _S1CON
	.globl _IEN2
	.globl _S0CON
	.globl _DPS
	.globl _P1
	.globl _TCON
	.globl _PCON
	.globl _DPH1
	.globl _DPL1
	.globl _DPH0
	.globl _DPL0
	.globl _SP
	.globl _P0
	.globl _X_IEEE_ADDR
	.globl _X_INFOPAGE
	.globl _X_P2DIR
	.globl _X_P1DIR
	.globl _X_P0DIR
	.globl _X_U1GCR
	.globl _X_U1UCR
	.globl _X_U1BAUD
	.globl _X_U1DBUF
	.globl _X_U1CSR
	.globl _X_P2INP
	.globl _X_P1INP
	.globl _X_P2SEL
	.globl _X_P1SEL
	.globl _X_P0SEL
	.globl _X_APCFG
	.globl _X_PERCFG
	.globl _X_T4CC1
	.globl _X_T4CCTL1
	.globl _X_T4CC0
	.globl _X_T4CCTL0
	.globl _X_T4CTL
	.globl _X_T4CNT
	.globl _X_RFIRQF0
	.globl _X_T1CCTL2
	.globl _X_T1CCTL1
	.globl _X_T1CCTL0
	.globl _X_T1CTL
	.globl _X_T1CNTH
	.globl _X_T1CNTL
	.globl _X_RFST
	.globl _X_T1CC2H
	.globl _X_T1CC2L
	.globl _X_T1CC1H
	.globl _X_T1CC1L
	.globl _X_T1CC0H
	.globl _X_T1CC0L
	.globl _X_RFD
	.globl _X_TIMIF
	.globl _X_DMAREQ
	.globl _X_DMAARM
	.globl _X_DMA0CFGH
	.globl _X_DMA0CFGL
	.globl _X_DMA1CFGH
	.globl _X_DMA1CFGL
	.globl _X_DMAIRQ
	.globl _X_T3CC1
	.globl _X_T3CCTL1
	.globl _X_T3CC0
	.globl _X_T3CCTL0
	.globl _X_T3CTL
	.globl _X_T3CNT
	.globl _X_WDCTL
	.globl _X_MEMCTR
	.globl _X_CLKCONCMD
	.globl _X_U0GCR
	.globl _X_U0UCR
	.globl _X_T2MSEL
	.globl _X_U0BAUD
	.globl _X_U0DBUF
	.globl _X_RFERRF
	.globl _X_SLEEPCMD
	.globl _X_RNDH
	.globl _X_RNDL
	.globl _X_ADCH
	.globl _X_ADCL
	.globl _X_ADCCON3
	.globl _X_ADCCON2
	.globl _X_ADCCON1
	.globl _X_ENCCS
	.globl _X_ENCDO
	.globl _X_ENCDI
	.globl _X_T1STAT
	.globl _X_PMUX
	.globl _X_STLOAD
	.globl _X_P2IEN
	.globl _X_P0IEN
	.globl _X_T2IRQM
	.globl _X_T2MOVF2
	.globl _X_T2MOVF1
	.globl _X_T2MOVF0
	.globl _X_T2M1
	.globl _X_T2M0
	.globl _X_T2IRQF
	.globl _X_P2
	.globl _X_PSBANK
	.globl _X_FMAP
	.globl _X_CLKCONSTA
	.globl _X_SLEEPSTA
	.globl _X_T2EVTCFG
	.globl _X_ST2
	.globl _X_ST1
	.globl _X_ST0
	.globl _X_T2CTRL
	.globl _X__XPAGE
	.globl _X_MPAGE
	.globl _X_RFIRQF1
	.globl _X_P1
	.globl _X_P0INP
	.globl _X_P1IEN
	.globl _X_PICTL
	.globl _X_P2IFG
	.globl _X_P1IFG
	.globl _X_P0IFG
	.globl _X_U0CSR
	.globl _X_P0
	.globl _USBF5
	.globl _USBF4
	.globl _USBF3
	.globl _USBF2
	.globl _USBF1
	.globl _USBF0
	.globl _USBCNTH
	.globl _USBCNTL
	.globl _USBCNT0
	.globl _USBCSOH
	.globl _USBCSOL
	.globl _USBMAXO
	.globl _USBCSIH
	.globl _USBCSIL
	.globl _USBCS0
	.globl _USBMAXI
	.globl _USBCTRL
	.globl _USBINDEX
	.globl _USBFRMH
	.globl _USBFRML
	.globl _USBCIE
	.globl _USBOIE
	.globl _USBIIE
	.globl _USBCIF
	.globl _USBOIF
	.globl _USBIIF
	.globl _USBPOW
	.globl _USBADDR
	.globl _CSPT
	.globl _CSPZ
	.globl _CSPY
	.globl _CSPX
	.globl _CSPSTAT
	.globl _CSPCTRL
	.globl _CSPPROG23
	.globl _CSPPROG22
	.globl _CSPPROG21
	.globl _CSPPROG20
	.globl _CSPPROG19
	.globl _CSPPROG18
	.globl _CSPPROG17
	.globl _CSPPROG16
	.globl _CSPPROG15
	.globl _CSPPROG14
	.globl _CSPPROG13
	.globl _CSPPROG12
	.globl _CSPPROG11
	.globl _CSPPROG10
	.globl _CSPPROG9
	.globl _CSPPROG8
	.globl _CSPPROG7
	.globl _CSPPROG6
	.globl _CSPPROG5
	.globl _CSPPROG4
	.globl _CSPPROG3
	.globl _CSPPROG2
	.globl _CSPPROG1
	.globl _CSPPROG0
	.globl _RFC_OBS_CTRL2
	.globl _RFC_OBS_CTRL1
	.globl _RFC_OBS_CTRL0
	.globl _TXFILTCFG
	.globl _PTEST1
	.globl _PTEST0
	.globl _ATEST
	.globl _DACTEST2
	.globl _DACTEST1
	.globl _DACTEST0
	.globl _MDMTEST1
	.globl _MDMTEST0
	.globl _ADCTEST2
	.globl _ADCTEST1
	.globl _ADCTEST0
	.globl _AGCCTRL3
	.globl _AGCCTRL2
	.globl _AGCCTRL1
	.globl _AGCCTRL0
	.globl _FSCAL3
	.globl _FSCAL2
	.globl _FSCAL1
	.globl _FSCAL0
	.globl _FSCTRL
	.globl _RXCTRL
	.globl _FREQEST
	.globl _MDMCTRL1
	.globl _MDMCTRL0
	.globl _RFRND
	.globl _RFERRM
	.globl _RFIRQM1
	.globl _RFIRQM0
	.globl _TXLAST_PTR
	.globl _TXFIRST_PTR
	.globl _RXP1_PTR
	.globl _RXLAST_PTR
	.globl _RXFIRST_PTR
	.globl _TXFIFOCNT
	.globl _RXFIFOCNT
	.globl _RXFIRST
	.globl _RSSISTAT
	.globl _RSSI
	.globl _CCACTRL1
	.globl _CCACTRL0
	.globl _FSMCTRL
	.globl _FIFOPCTRL
	.globl _FSMSTAT1
	.globl _FSMSTAT0
	.globl _TXCTRL
	.globl _TXPOWER
	.globl _FREQCTRL
	.globl _FREQTUNE
	.globl _RXMASKCLR
	.globl _RXMASKSET
	.globl _RXENABLE
	.globl _FRMCTRL1
	.globl _FRMCTRL0
	.globl _SRCEXTEN2
	.globl _SRCEXTEN1
	.globl _SRCEXTEN0
	.globl _SRCSHORTEN2
	.globl _SRCSHORTEN1
	.globl _SRCSHORTEN0
	.globl _SRCMATCH
	.globl _FRMFILT1
	.globl _FRMFILT0
	.globl _SHORT_ADDR1
	.globl _SHORT_ADDR0
	.globl _PAN_ID1
	.globl _PAN_ID0
	.globl _EXT_ADDR7
	.globl _EXT_ADDR6
	.globl _EXT_ADDR5
	.globl _EXT_ADDR4
	.globl _EXT_ADDR3
	.globl _EXT_ADDR2
	.globl _EXT_ADDR1
	.globl _EXT_ADDR0
	.globl _SRCSHORTPENDEN2
	.globl _SRCSHORTPENDEN1
	.globl _SRCSHORTPENDEN0
	.globl _SRCEXTPENDEN2
	.globl _SRCEXTPENDEN1
	.globl _SRCEXTPENDEN0
	.globl _SRCRESINDEX
	.globl _SRCRESMASK2
	.globl _SRCRESMASK1
	.globl _SRCRESMASK0
	.globl _SRC_ADDR_TABLE
	.globl _TXFIFO
	.globl _RXFIFO
	.globl _RFCORE_RAM
	.globl _CMPCTL
	.globl _OPAMPS
	.globl _OPAMPC
	.globl _STCV2
	.globl _STCV1
	.globl _STCV0
	.globl _STCS
	.globl _STCC
	.globl _T1CC4H
	.globl _T1CC4L
	.globl _T1CC3H
	.globl _T1CC3L
	.globl _XX_T1CC2H
	.globl _XX_T1CC2L
	.globl _XX_T1CC1H
	.globl _XX_T1CC1L
	.globl _XX_T1CC0H
	.globl _XX_T1CC0L
	.globl _T1CCTL4
	.globl _T1CCTL3
	.globl _XX_T1CCTL2
	.globl _XX_T1CCTL1
	.globl _XX_T1CCTL0
	.globl _CLD
	.globl _IRCTL
	.globl _CHIPINFO1
	.globl _CHIPINFO0
	.globl _FWDATA
	.globl _FADDRH
	.globl _FADDRL
	.globl _FCTL
	.globl _IVCTRL
	.globl _BATTMON
	.globl _SRCRC
	.globl _DBGDATA
	.globl _TESTREG0
	.globl _CHIPID
	.globl _CHVER
	.globl _OBSSEL5
	.globl _OBSSEL4
	.globl _OBSSEL3
	.globl _OBSSEL2
	.globl _OBSSEL1
	.globl _OBSSEL0
	.globl _I2CIO
	.globl _I2CWC
	.globl _I2CADDR
	.globl _I2CDATA
	.globl _I2CSTAT
	.globl _I2CCFG
	.globl _OPAMPMC
	.globl _MONMUX
	.globl _rudolph1_open
	.globl _rudolph1_close
	.globl _rudolph1_send
	.globl _rudolph1_stop
;--------------------------------------------------------
; special function registers
;--------------------------------------------------------
	.area RSEG    (ABS,DATA)
	.org 0x0000
_P0	=	0x0080
_SP	=	0x0081
_DPL0	=	0x0082
_DPH0	=	0x0083
_DPL1	=	0x0084
_DPH1	=	0x0085
_PCON	=	0x0087
_TCON	=	0x0088
_P1	=	0x0090
_DPS	=	0x0092
_S0CON	=	0x0098
_IEN2	=	0x009a
_S1CON	=	0x009b
_P2	=	0x00a0
_IEN0	=	0x00a8
_IP0	=	0x00a9
_IEN1	=	0x00b8
_IP1	=	0x00b9
_IRCON	=	0x00c0
_PSW	=	0x00d0
_ACC	=	0x00e0
_IRCON2	=	0x00e8
_B	=	0x00f0
_ADCCON1	=	0x00b4
_ADCCON2	=	0x00b5
_ADCCON3	=	0x00b6
_ADCL	=	0x00ba
_ADCH	=	0x00bb
_RNDL	=	0x00bc
_RNDH	=	0x00bd
_ENCDI	=	0x00b1
_ENCDO	=	0x00b2
_ENCCS	=	0x00b3
_DMAIRQ	=	0x00d1
_DMA1CFGL	=	0x00d2
_DMA1CFGH	=	0x00d3
_DMA0CFGL	=	0x00d4
_DMA0CFGH	=	0x00d5
_DMAARM	=	0x00d6
_DMAREQ	=	0x00d7
_P0IFG	=	0x0089
_P1IFG	=	0x008a
_P2IFG	=	0x008b
_PICTL	=	0x008c
_P0IEN	=	0x00ab
_P1IEN	=	0x008d
_P2IEN	=	0x00ac
_P0INP	=	0x008f
_PERCFG	=	0x00f1
_APCFG	=	0x00f2
_P0SEL	=	0x00f3
_P1SEL	=	0x00f4
_P2SEL	=	0x00f5
_P1INP	=	0x00f6
_P2INP	=	0x00f7
_P0DIR	=	0x00fd
_P1DIR	=	0x00fe
_P2DIR	=	0x00ff
_PMUX	=	0x00ae
_MPAGE	=	0x0093
__XPAGE	=	0x0093
_MEMCTR	=	0x00c7
_FMAP	=	0x009f
_PSBANK	=	0x009f
_RFIRQF1	=	0x0091
_RFD	=	0x00d9
_RFST	=	0x00e1
_RFIRQF0	=	0x00e9
_RFERRF	=	0x00bf
_ST0	=	0x0095
_ST1	=	0x0096
_ST2	=	0x0097
_STLOAD	=	0x00ad
_SLEEPCMD	=	0x00be
_SLEEPSTA	=	0x009d
_CLKCONCMD	=	0x00c6
_CLKCONSTA	=	0x009e
_T1CC0L	=	0x00da
_T1CC0H	=	0x00db
_T1CC1L	=	0x00dc
_T1CC1H	=	0x00dd
_T1CC2L	=	0x00de
_T1CC2H	=	0x00df
_T1CNTL	=	0x00e2
_T1CNTH	=	0x00e3
_T1CTL	=	0x00e4
_T1CCTL0	=	0x00e5
_T1CCTL1	=	0x00e6
_T1CCTL2	=	0x00e7
_T1STAT	=	0x00af
_T2CTRL	=	0x0094
_T2EVTCFG	=	0x009c
_T2IRQF	=	0x00a1
_T2M0	=	0x00a2
_T2M1	=	0x00a3
_T2MOVF0	=	0x00a4
_T2MOVF1	=	0x00a5
_T2MOVF2	=	0x00a6
_T2IRQM	=	0x00a7
_T2MSEL	=	0x00c3
_T3CNT	=	0x00ca
_T3CTL	=	0x00cb
_T3CCTL0	=	0x00cc
_T3CC0	=	0x00cd
_T3CCTL1	=	0x00ce
_T3CC1	=	0x00cf
_T4CNT	=	0x00ea
_T4CTL	=	0x00eb
_T4CCTL0	=	0x00ec
_T4CC0	=	0x00ed
_T4CCTL1	=	0x00ee
_T4CC1	=	0x00ef
_TIMIF	=	0x00d8
_U0CSR	=	0x0086
_U0DBUF	=	0x00c1
_U0BAUD	=	0x00c2
_U0UCR	=	0x00c4
_U0GCR	=	0x00c5
_U1CSR	=	0x00f8
_U1DBUF	=	0x00f9
_U1BAUD	=	0x00fa
_U1UCR	=	0x00fb
_U1GCR	=	0x00fc
_WDCTL	=	0x00c9
;--------------------------------------------------------
; special function bits
;--------------------------------------------------------
	.area RSEG    (ABS,DATA)
	.org 0x0000
_P0_7	=	0x0087
_P0_6	=	0x0086
_P0_5	=	0x0085
_P0_4	=	0x0084
_P0_3	=	0x0083
_P0_2	=	0x0082
_P0_1	=	0x0081
_P0_0	=	0x0080
_URX1IF	=	0x008f
_ADCIF	=	0x008d
_URX0IF	=	0x008b
_IT1	=	0x008a
_RFERRIF	=	0x0089
_IT0	=	0x0088
_P1_7	=	0x0097
_P1_6	=	0x0096
_P1_5	=	0x0095
_P1_4	=	0x0094
_P1_3	=	0x0093
_P1_2	=	0x0092
_P1_1	=	0x0091
_P1_0	=	0x0090
_ENCIF_1	=	0x0099
_ENCIF_0	=	0x0098
_P2_7	=	0x00a7
_P2_6	=	0x00a6
_P2_5	=	0x00a5
_P2_4	=	0x00a4
_P2_3	=	0x00a3
_P2_2	=	0x00a2
_P2_1	=	0x00a1
_P2_0	=	0x00a0
_EA	=	0x00af
_STIE	=	0x00ad
_ENCIE	=	0x00ac
_URX1IE	=	0x00ab
_URX0IE	=	0x00aa
_ADCIE	=	0x00a9
_RFERRIE	=	0x00a8
_P0IE	=	0x00bd
_T4IE	=	0x00bc
_T3IE	=	0x00bb
_T2IE	=	0x00ba
_T1IE	=	0x00b9
_DMAIE	=	0x00b8
_STIF	=	0x00c7
_P0IF	=	0x00c5
_T4IF	=	0x00c4
_T3IF	=	0x00c3
_T2IF	=	0x00c2
_T1IF	=	0x00c1
_DMAIF	=	0x00c0
_CY	=	0x00d7
_AC	=	0x00d6
_F0	=	0x00d5
_RS1	=	0x00d4
_RS0	=	0x00d3
_OV	=	0x00d2
_F1	=	0x00d1
_P	=	0x00d0
_ACC_7	=	0x00e7
_ACC_6	=	0x00e6
_ACC_5	=	0x00e5
_ACC_4	=	0x00e4
_ACC_3	=	0x00e3
_ACC_2	=	0x00e2
_ACC_1	=	0x00e1
_ACC_0	=	0x00e0
_WDTIF	=	0x00ec
_P1IF	=	0x00eb
_UTX1IF	=	0x00ea
_UTX0IF	=	0x00e9
_P2IF	=	0x00e8
_B_7	=	0x00f7
_B_6	=	0x00f6
_B_5	=	0x00f5
_B_4	=	0x00f4
_B_3	=	0x00f3
_B_2	=	0x00f2
_B_1	=	0x00f1
_B_0	=	0x00f0
_OVFIM	=	0x00de
_T4CH1IF	=	0x00dd
_T4CH0IF	=	0x00dc
_T4OVFIF	=	0x00db
_T3CH1IF	=	0x00da
_T3CH0IF	=	0x00d9
_T3OVFIF	=	0x00d8
_MODE	=	0x00ff
_RE	=	0x00fe
_SLAVE	=	0x00fd
_FE	=	0x00fc
_ERR	=	0x00fb
_RX_BYTE	=	0x00fa
_TX_BYTE	=	0x00f9
_ACTIVE	=	0x00f8
;--------------------------------------------------------
; overlayable register banks
;--------------------------------------------------------
	.area REG_BANK_0	(REL,OVR,DATA)
	.ds 8
;--------------------------------------------------------
; internal ram data
;--------------------------------------------------------
	.area DSEG    (DATA)
;--------------------------------------------------------
; overlayable items in internal ram 
;--------------------------------------------------------
;--------------------------------------------------------
; indirectly addressable internal ram data
;--------------------------------------------------------
	.area ISEG    (DATA)
;--------------------------------------------------------
; absolute internal ram data
;--------------------------------------------------------
	.area IABS    (ABS,DATA)
	.area IABS    (ABS,DATA)
;--------------------------------------------------------
; bit data
;--------------------------------------------------------
	.area BSEG    (BIT)
;--------------------------------------------------------
; paged external ram data
;--------------------------------------------------------
	.area PSEG    (PAG,XDATA)
;--------------------------------------------------------
; external ram data
;--------------------------------------------------------
	.area XSEG    (XDATA)
_MONMUX	=	0x61a6
_OPAMPMC	=	0x61a6
_I2CCFG	=	0x6230
_I2CSTAT	=	0x6231
_I2CDATA	=	0x6232
_I2CADDR	=	0x6233
_I2CWC	=	0x6234
_I2CIO	=	0x6235
_OBSSEL0	=	0x6243
_OBSSEL1	=	0x6244
_OBSSEL2	=	0x6245
_OBSSEL3	=	0x6246
_OBSSEL4	=	0x6247
_OBSSEL5	=	0x6248
_CHVER	=	0x6249
_CHIPID	=	0x624a
_TESTREG0	=	0x624b
_DBGDATA	=	0x6260
_SRCRC	=	0x6262
_BATTMON	=	0x6264
_IVCTRL	=	0x6265
_FCTL	=	0x6270
_FADDRL	=	0x6271
_FADDRH	=	0x6272
_FWDATA	=	0x6273
_CHIPINFO0	=	0x6276
_CHIPINFO1	=	0x6277
_IRCTL	=	0x6281
_CLD	=	0x6290
_XX_T1CCTL0	=	0x62a0
_XX_T1CCTL1	=	0x62a1
_XX_T1CCTL2	=	0x62a2
_T1CCTL3	=	0x62a3
_T1CCTL4	=	0x62a4
_XX_T1CC0L	=	0x62a6
_XX_T1CC0H	=	0x62a7
_XX_T1CC1L	=	0x62a8
_XX_T1CC1H	=	0x62a9
_XX_T1CC2L	=	0x62aa
_XX_T1CC2H	=	0x62ab
_T1CC3L	=	0x62ac
_T1CC3H	=	0x62ad
_T1CC4L	=	0x62ae
_T1CC4H	=	0x62af
_STCC	=	0x62b0
_STCS	=	0x62b1
_STCV0	=	0x62b2
_STCV1	=	0x62b3
_STCV2	=	0x62b4
_OPAMPC	=	0x62c0
_OPAMPS	=	0x62c1
_CMPCTL	=	0x62d0
_RFCORE_RAM	=	0x6000
_RXFIFO	=	0x6000
_TXFIFO	=	0x6080
_SRC_ADDR_TABLE	=	0x6100
_SRCRESMASK0	=	0x6160
_SRCRESMASK1	=	0x6161
_SRCRESMASK2	=	0x6162
_SRCRESINDEX	=	0x6163
_SRCEXTPENDEN0	=	0x6164
_SRCEXTPENDEN1	=	0x6165
_SRCEXTPENDEN2	=	0x6166
_SRCSHORTPENDEN0	=	0x6167
_SRCSHORTPENDEN1	=	0x6168
_SRCSHORTPENDEN2	=	0x6169
_EXT_ADDR0	=	0x616a
_EXT_ADDR1	=	0x616b
_EXT_ADDR2	=	0x616c
_EXT_ADDR3	=	0x616d
_EXT_ADDR4	=	0x616e
_EXT_ADDR5	=	0x616f
_EXT_ADDR6	=	0x6170
_EXT_ADDR7	=	0x6171
_PAN_ID0	=	0x6172
_PAN_ID1	=	0x6173
_SHORT_ADDR0	=	0x6174
_SHORT_ADDR1	=	0x6175
_FRMFILT0	=	0x6180
_FRMFILT1	=	0x6181
_SRCMATCH	=	0x6182
_SRCSHORTEN0	=	0x6183
_SRCSHORTEN1	=	0x6184
_SRCSHORTEN2	=	0x6185
_SRCEXTEN0	=	0x6186
_SRCEXTEN1	=	0x6187
_SRCEXTEN2	=	0x6188
_FRMCTRL0	=	0x6189
_FRMCTRL1	=	0x618a
_RXENABLE	=	0x618b
_RXMASKSET	=	0x618c
_RXMASKCLR	=	0x618d
_FREQTUNE	=	0x618e
_FREQCTRL	=	0x618f
_TXPOWER	=	0x6190
_TXCTRL	=	0x6191
_FSMSTAT0	=	0x6192
_FSMSTAT1	=	0x6193
_FIFOPCTRL	=	0x6194
_FSMCTRL	=	0x6195
_CCACTRL0	=	0x6196
_CCACTRL1	=	0x6197
_RSSI	=	0x6198
_RSSISTAT	=	0x6199
_RXFIRST	=	0x619a
_RXFIFOCNT	=	0x619b
_TXFIFOCNT	=	0x619c
_RXFIRST_PTR	=	0x619d
_RXLAST_PTR	=	0x619e
_RXP1_PTR	=	0x619f
_TXFIRST_PTR	=	0x61a1
_TXLAST_PTR	=	0x61a2
_RFIRQM0	=	0x61a3
_RFIRQM1	=	0x61a4
_RFERRM	=	0x61a5
_RFRND	=	0x61a7
_MDMCTRL0	=	0x61a8
_MDMCTRL1	=	0x61a9
_FREQEST	=	0x61aa
_RXCTRL	=	0x61ab
_FSCTRL	=	0x61ac
_FSCAL0	=	0x61ad
_FSCAL1	=	0x61ae
_FSCAL2	=	0x61af
_FSCAL3	=	0x61b0
_AGCCTRL0	=	0x61b1
_AGCCTRL1	=	0x61b2
_AGCCTRL2	=	0x61b3
_AGCCTRL3	=	0x61b4
_ADCTEST0	=	0x61b5
_ADCTEST1	=	0x61b6
_ADCTEST2	=	0x61b7
_MDMTEST0	=	0x61b8
_MDMTEST1	=	0x61b9
_DACTEST0	=	0x61ba
_DACTEST1	=	0x61bb
_DACTEST2	=	0x61bc
_ATEST	=	0x61bd
_PTEST0	=	0x61be
_PTEST1	=	0x61bf
_TXFILTCFG	=	0x61fa
_RFC_OBS_CTRL0	=	0x61eb
_RFC_OBS_CTRL1	=	0x61ec
_RFC_OBS_CTRL2	=	0x61ed
_CSPPROG0	=	0x61c0
_CSPPROG1	=	0x61c1
_CSPPROG2	=	0x61c2
_CSPPROG3	=	0x61c3
_CSPPROG4	=	0x61c4
_CSPPROG5	=	0x61c5
_CSPPROG6	=	0x61c6
_CSPPROG7	=	0x61c7
_CSPPROG8	=	0x61c8
_CSPPROG9	=	0x61c9
_CSPPROG10	=	0x61ca
_CSPPROG11	=	0x61cb
_CSPPROG12	=	0x61cc
_CSPPROG13	=	0x61cd
_CSPPROG14	=	0x61ce
_CSPPROG15	=	0x61cf
_CSPPROG16	=	0x61d0
_CSPPROG17	=	0x61d1
_CSPPROG18	=	0x61d2
_CSPPROG19	=	0x61d3
_CSPPROG20	=	0x61d4
_CSPPROG21	=	0x61d5
_CSPPROG22	=	0x61d6
_CSPPROG23	=	0x61d7
_CSPCTRL	=	0x61e0
_CSPSTAT	=	0x61e1
_CSPX	=	0x61e2
_CSPY	=	0x61e3
_CSPZ	=	0x61e4
_CSPT	=	0x61e5
_USBADDR	=	0x6200
_USBPOW	=	0x6201
_USBIIF	=	0x6202
_USBOIF	=	0x6204
_USBCIF	=	0x6206
_USBIIE	=	0x6207
_USBOIE	=	0x6209
_USBCIE	=	0x620b
_USBFRML	=	0x620c
_USBFRMH	=	0x620d
_USBINDEX	=	0x620e
_USBCTRL	=	0x620f
_USBMAXI	=	0x6210
_USBCS0	=	0x6211
_USBCSIL	=	0x6211
_USBCSIH	=	0x6212
_USBMAXO	=	0x6213
_USBCSOL	=	0x6214
_USBCSOH	=	0x6215
_USBCNT0	=	0x6216
_USBCNTL	=	0x6216
_USBCNTH	=	0x6217
_USBF0	=	0x6220
_USBF1	=	0x6222
_USBF2	=	0x6224
_USBF3	=	0x6226
_USBF4	=	0x6228
_USBF5	=	0x622a
_X_P0	=	0x7080
_X_U0CSR	=	0x7086
_X_P0IFG	=	0x7089
_X_P1IFG	=	0x708a
_X_P2IFG	=	0x708b
_X_PICTL	=	0x708c
_X_P1IEN	=	0x708d
_X_P0INP	=	0x708f
_X_P1	=	0x7090
_X_RFIRQF1	=	0x7091
_X_MPAGE	=	0x7093
_X__XPAGE	=	0x7093
_X_T2CTRL	=	0x7094
_X_ST0	=	0x7095
_X_ST1	=	0x7096
_X_ST2	=	0x7097
_X_T2EVTCFG	=	0x709c
_X_SLEEPSTA	=	0x709d
_X_CLKCONSTA	=	0x709e
_X_FMAP	=	0x709f
_X_PSBANK	=	0x709f
_X_P2	=	0x70a0
_X_T2IRQF	=	0x70a1
_X_T2M0	=	0x70a2
_X_T2M1	=	0x70a3
_X_T2MOVF0	=	0x70a4
_X_T2MOVF1	=	0x70a5
_X_T2MOVF2	=	0x70a6
_X_T2IRQM	=	0x70a7
_X_P0IEN	=	0x70ab
_X_P2IEN	=	0x70ac
_X_STLOAD	=	0x70ad
_X_PMUX	=	0x70ae
_X_T1STAT	=	0x70af
_X_ENCDI	=	0x70b1
_X_ENCDO	=	0x70b2
_X_ENCCS	=	0x70b3
_X_ADCCON1	=	0x70b4
_X_ADCCON2	=	0x70b5
_X_ADCCON3	=	0x70b6
_X_ADCL	=	0x70ba
_X_ADCH	=	0x70bb
_X_RNDL	=	0x70bc
_X_RNDH	=	0x70bd
_X_SLEEPCMD	=	0x70be
_X_RFERRF	=	0x70bf
_X_U0DBUF	=	0x70c1
_X_U0BAUD	=	0x70c2
_X_T2MSEL	=	0x70c3
_X_U0UCR	=	0x70c4
_X_U0GCR	=	0x70c5
_X_CLKCONCMD	=	0x70c6
_X_MEMCTR	=	0x70c7
_X_WDCTL	=	0x70c9
_X_T3CNT	=	0x70ca
_X_T3CTL	=	0x70cb
_X_T3CCTL0	=	0x70cc
_X_T3CC0	=	0x70cd
_X_T3CCTL1	=	0x70ce
_X_T3CC1	=	0x70cf
_X_DMAIRQ	=	0x70d1
_X_DMA1CFGL	=	0x70d2
_X_DMA1CFGH	=	0x70d3
_X_DMA0CFGL	=	0x70d4
_X_DMA0CFGH	=	0x70d5
_X_DMAARM	=	0x70d6
_X_DMAREQ	=	0x70d7
_X_TIMIF	=	0x70d8
_X_RFD	=	0x70d9
_X_T1CC0L	=	0x70da
_X_T1CC0H	=	0x70db
_X_T1CC1L	=	0x70dc
_X_T1CC1H	=	0x70dd
_X_T1CC2L	=	0x70de
_X_T1CC2H	=	0x70df
_X_RFST	=	0x70e1
_X_T1CNTL	=	0x70e2
_X_T1CNTH	=	0x70e3
_X_T1CTL	=	0x70e4
_X_T1CCTL0	=	0x70e5
_X_T1CCTL1	=	0x70e6
_X_T1CCTL2	=	0x70e7
_X_RFIRQF0	=	0x70e9
_X_T4CNT	=	0x70ea
_X_T4CTL	=	0x70eb
_X_T4CCTL0	=	0x70ec
_X_T4CC0	=	0x70ed
_X_T4CCTL1	=	0x70ee
_X_T4CC1	=	0x70ef
_X_PERCFG	=	0x70f1
_X_APCFG	=	0x70f2
_X_P0SEL	=	0x70f3
_X_P1SEL	=	0x70f4
_X_P2SEL	=	0x70f5
_X_P1INP	=	0x70f6
_X_P2INP	=	0x70f7
_X_U1CSR	=	0x70f8
_X_U1DBUF	=	0x70f9
_X_U1BAUD	=	0x70fa
_X_U1UCR	=	0x70fb
_X_U1GCR	=	0x70fc
_X_P0DIR	=	0x70fd
_X_P1DIR	=	0x70fe
_X_P2DIR	=	0x70ff
_X_INFOPAGE	=	0x7800
_X_IEEE_ADDR	=	0x780c
;--------------------------------------------------------
; absolute external ram data
;--------------------------------------------------------
	.area XABS    (ABS,XDATA)
;--------------------------------------------------------
; external initialized ram data
;--------------------------------------------------------
	.area XISEG   (XDATA)
	.area HOME    (CODE)
	.area GSINIT0 (CODE)
	.area GSINIT1 (CODE)
	.area GSINIT2 (CODE)
	.area GSINIT3 (CODE)
	.area GSINIT4 (CODE)
	.area GSINIT5 (CODE)
	.area GSINIT  (CODE)
	.area GSFINAL (CODE)
	.area CSEG    (CODE)
;--------------------------------------------------------
; global & static initialisations
;--------------------------------------------------------
	.area HOME    (CODE)
	.area GSINIT  (CODE)
	.area GSFINAL (CODE)
	.area GSINIT  (CODE)
;--------------------------------------------------------
; Home
;--------------------------------------------------------
	.area HOME    (CODE)
	.area HOME    (CODE)
;--------------------------------------------------------
; code
;--------------------------------------------------------
	.area CSEG    (CODE)
;------------------------------------------------------------
;Allocation info for local variables in function 'read_data'
;------------------------------------------------------------
;dataptr                   Allocated to stack - sp -7
;chunk                     Allocated to stack - sp -9
;c                         Allocated to stack - sp -2
;len                       Allocated to registers r3 r4 
;------------------------------------------------------------
;	../contiki-sensinode/core/net/rime/rudolph1.c:88: read_data(struct rudolph1_conn *c, uint8_t *dataptr, int chunk)
;	-----------------------------------------
;	 function read_data
;	-----------------------------------------
_read_data:
	ar7 = 0x07
	ar6 = 0x06
	ar5 = 0x05
	ar4 = 0x04
	ar3 = 0x03
	ar2 = 0x02
	ar1 = 0x01
	ar0 = 0x00
	push	dpl
	push	dph
	push	b
;	../contiki-sensinode/core/net/rime/rudolph1.c:90: int len = 0;
	mov	r3,#0x00
	mov	r4,#0x00
;	../contiki-sensinode/core/net/rime/rudolph1.c:92: if(c->cb->read_chunk) {
	mov	r0,sp
	dec	r0
	dec	r0
	mov	a,#0x88
	add	a,@r0
	mov	r2,a
	clr	a
	inc	r0
	addc	a,@r0
	mov	r6,a
	inc	r0
	mov	ar7,@r0
	mov	dpl,r2
	mov	dph,r6
	mov	b,r7
	lcall	__gptrget
	mov	r2,a
	inc	dptr
	lcall	__gptrget
	mov	r6,a
	inc	dptr
	lcall	__gptrget
	mov	r7,a
	mov	a,#0x02
	add	a,r2
	mov	r2,a
	clr	a
	addc	a,r6
	mov	r6,a
	mov	dpl,r2
	mov	dph,r6
	mov	b,r7
	lcall	__gptrget
	mov	r6,a
	inc	dptr
	lcall	__gptrget
	mov	r7,a
	orl	a,r6
	jz	00102$
;	../contiki-sensinode/core/net/rime/rudolph1.c:93: len = c->cb->read_chunk(c, chunk * RUDOLPH1_DATASIZE,
	mov	a,sp
	add	a,#0xf7
	mov	r0,a
	mov	ar2,@r0
	inc	r0
	mov	a,@r0
	anl	a,#0x03
	mov	c,acc.0
	xch	a,r2
	rrc	a
	xch	a,r2
	rrc	a
	mov	c,acc.0
	xch	a,r2
	rrc	a
	xch	a,r2
	rrc	a
	xch	a,r2
	mov	r5,a
	mov	a,#0x40
	push	acc
	clr	a
	push	acc
	mov	a,sp
	add	a,#0xf7
	mov	r0,a
	mov	a,@r0
	push	acc
	inc	r0
	mov	a,@r0
	push	acc
	inc	r0
	mov	a,@r0
	push	acc
	push	ar2
	push	ar5
	lcall	00109$
	sjmp	00110$
00109$:
	push	ar6
	push	ar7
	mov	a,sp
	add	a,#0xf3
	mov	r0,a
	mov	dpl,@r0
	inc	r0
	mov	dph,@r0
	inc	r0
	mov	b,@r0
	ret
00110$:
	mov	r6,dpl
	mov	r7,dph
	mov	a,sp
	add	a,#0xf9
	mov	sp,a
	mov	ar3,r6
	mov	ar4,r7
00102$:
;	../contiki-sensinode/core/net/rime/rudolph1.c:96: return len;
	mov	dpl,r3
	mov	dph,r4
	dec	sp
	dec	sp
	dec	sp
	ret
;------------------------------------------------------------
;Allocation info for local variables in function 'format_data'
;------------------------------------------------------------
;chunk                     Allocated to stack - sp -9
;c                         Allocated to stack - sp -5
;p                         Allocated to stack - sp -2
;------------------------------------------------------------
;	../contiki-sensinode/core/net/rime/rudolph1.c:100: format_data(struct rudolph1_conn *c, int chunk)
;	-----------------------------------------
;	 function format_data
;	-----------------------------------------
_format_data:
	push	dpl
	push	dph
	push	b
	inc	sp
	inc	sp
	inc	sp
;	../contiki-sensinode/core/net/rime/rudolph1.c:104: packetbuf_clear();
	lcall	_packetbuf_clear
;	../contiki-sensinode/core/net/rime/rudolph1.c:105: p = packetbuf_dataptr();
	lcall	_packetbuf_dataptr
	mov	r2,dpl
	mov	r3,dph
	mov	r4,b
	mov	r0,sp
	dec	r0
	dec	r0
	mov	@r0,ar2
	inc	r0
	mov	@r0,ar3
	inc	r0
	mov	@r0,ar4
;	../contiki-sensinode/core/net/rime/rudolph1.c:106: p->h.type = TYPE_DATA;
	mov	r0,sp
	dec	r0
	dec	r0
	mov	dpl,@r0
	inc	r0
	mov	dph,@r0
	inc	r0
	mov	b,@r0
	clr	a
	lcall	__gptrput
;	../contiki-sensinode/core/net/rime/rudolph1.c:107: p->h.version = c->version;
	mov	r0,sp
	dec	r0
	dec	r0
	inc	a
	add	a,@r0
	mov	r5,a
	clr	a
	inc	r0
	addc	a,@r0
	mov	r6,a
	inc	r0
	mov	ar7,@r0
	mov	a,sp
	add	a,#0xfb
	mov	r0,a
	mov	a,#0xA6
	add	a,@r0
	mov	r2,a
	clr	a
	inc	r0
	addc	a,@r0
	mov	r3,a
	inc	r0
	mov	ar4,@r0
	mov	dpl,r2
	mov	dph,r3
	mov	b,r4
	lcall	__gptrget
	mov	dpl,r5
	mov	dph,r6
	mov	b,r7
	lcall	__gptrput
;	../contiki-sensinode/core/net/rime/rudolph1.c:108: p->h.chunk = chunk;
	mov	r0,sp
	dec	r0
	dec	r0
	mov	a,#0x02
	add	a,@r0
	mov	r5,a
	clr	a
	inc	r0
	addc	a,@r0
	mov	r6,a
	inc	r0
	mov	ar7,@r0
	mov	dpl,r5
	mov	dph,r6
	mov	b,r7
	mov	a,sp
	add	a,#0xf7
	mov	r0,a
	mov	a,@r0
	lcall	__gptrput
	inc	dptr
	inc	r0
	mov	a,@r0
	lcall	__gptrput
;	../contiki-sensinode/core/net/rime/rudolph1.c:109: p->datalen = read_data(c, p->data, chunk);
	mov	r0,sp
	dec	r0
	dec	r0
	mov	a,#0x04
	add	a,@r0
	mov	r5,a
	clr	a
	inc	r0
	addc	a,@r0
	mov	r6,a
	inc	r0
	mov	ar7,@r0
	mov	r0,sp
	dec	r0
	dec	r0
	mov	a,#0x05
	add	a,@r0
	mov	r2,a
	clr	a
	inc	r0
	addc	a,@r0
	mov	r3,a
	inc	r0
	mov	ar4,@r0
	push	ar7
	push	ar6
	push	ar5
	mov	a,sp
	add	a,#0xf4
	mov	r0,a
	mov	a,@r0
	push	acc
	inc	r0
	mov	a,@r0
	push	acc
	push	ar2
	push	ar3
	push	ar4
	mov	a,sp
	add	a,#0xf3
	mov	r0,a
	mov	dpl,@r0
	inc	r0
	mov	dph,@r0
	inc	r0
	mov	b,@r0
	lcall	_read_data
	mov	r3,dpl
	mov	a,sp
	add	a,#0xfb
	mov	sp,a
	pop	ar5
	pop	ar6
	pop	ar7
	mov	dpl,r5
	mov	dph,r6
	mov	b,r7
	mov	a,r3
	lcall	__gptrput
;	../contiki-sensinode/core/net/rime/rudolph1.c:111: (RUDOLPH1_DATASIZE - p->datalen));
	mov	r4,#0x00
	mov	a,#0x40
	clr	c
	subb	a,r3
	mov	r3,a
	clr	a
	subb	a,r4
	mov	r4,a
	mov	a,#0x45
	clr	c
	subb	a,r3
	mov	r3,a
	clr	a
	subb	a,r4
	mov	r4,a
	mov	dpl,r3
	mov	dph,r4
	push	ar7
	push	ar6
	push	ar5
	lcall	_packetbuf_set_datalen
	pop	ar5
	pop	ar6
	pop	ar7
;	../contiki-sensinode/core/net/rime/rudolph1.c:113: return p->datalen;
	mov	dpl,r5
	mov	dph,r6
	mov	b,r7
	lcall	__gptrget
	mov	r5,a
	mov	r7,#0x00
	mov	dpl,r5
	mov	dph,r7
	mov	a,sp
	add	a,#0xFA
	mov	sp,a
	ret
;------------------------------------------------------------
;Allocation info for local variables in function 'write_data'
;------------------------------------------------------------
;chunk                     Allocated to stack - sp -6
;data                      Allocated to stack - sp -9
;datalen                   Allocated to stack - sp -11
;c                         Allocated to stack - sp -2
;------------------------------------------------------------
;	../contiki-sensinode/core/net/rime/rudolph1.c:117: write_data(struct rudolph1_conn *c, int chunk, uint8_t *data, int datalen)
;	-----------------------------------------
;	 function write_data
;	-----------------------------------------
_write_data:
	push	dpl
	push	dph
	push	b
;	../contiki-sensinode/core/net/rime/rudolph1.c:119: if(chunk == 0) {
	mov	a,sp
	add	a,#0xfa
	mov	r0,a
	mov	a,@r0
	inc	r0
	orl	a,@r0
	jnz	00102$
;	../contiki-sensinode/core/net/rime/rudolph1.c:120: c->cb->write_chunk(c, 0, RUDOLPH1_FLAG_NEWFILE, data, 0);
	mov	r0,sp
	dec	r0
	dec	r0
	mov	a,#0x88
	add	a,@r0
	mov	r2,a
	clr	a
	inc	r0
	addc	a,@r0
	mov	r3,a
	inc	r0
	mov	ar4,@r0
	mov	dpl,r2
	mov	dph,r3
	mov	b,r4
	lcall	__gptrget
	mov	r2,a
	inc	dptr
	lcall	__gptrget
	mov	r3,a
	inc	dptr
	lcall	__gptrget
	mov	r4,a
	mov	dpl,r2
	mov	dph,r3
	mov	b,r4
	lcall	__gptrget
	mov	r2,a
	inc	dptr
	lcall	__gptrget
	mov	r3,a
	push	ar3
	push	ar2
	clr	a
	push	acc
	push	acc
	mov	a,sp
	add	a,#0xf3
	mov	r0,a
	mov	a,@r0
	push	acc
	inc	r0
	mov	a,@r0
	push	acc
	inc	r0
	mov	a,@r0
	push	acc
	mov	a,#0x01
	push	acc
	clr	a
	push	acc
	push	acc
	push	acc
	lcall	00115$
	sjmp	00116$
00115$:
	push	ar2
	push	ar3
	mov	a,sp
	add	a,#0xef
	mov	r0,a
	mov	dpl,@r0
	inc	r0
	mov	dph,@r0
	inc	r0
	mov	b,@r0
	ret
00116$:
	mov	a,sp
	add	a,#0xf7
	mov	sp,a
	pop	ar2
	pop	ar3
00102$:
;	../contiki-sensinode/core/net/rime/rudolph1.c:123: if(datalen < RUDOLPH1_DATASIZE) {
	mov	a,sp
	add	a,#0xf5
	mov	r0,a
	clr	c
	mov	a,@r0
	subb	a,#0x40
	inc	r0
	mov	a,@r0
	xrl	a,#0x80
	subb	a,#0x80
	jc	00117$
	ljmp	00104$
00117$:
;	../contiki-sensinode/core/net/rime/rudolph1.c:127: c->cb->write_chunk(c, chunk * RUDOLPH1_DATASIZE,
	mov	r0,sp
	dec	r0
	dec	r0
	mov	a,#0x88
	add	a,@r0
	mov	r2,a
	clr	a
	inc	r0
	addc	a,@r0
	mov	r3,a
	inc	r0
	mov	ar4,@r0
	mov	dpl,r2
	mov	dph,r3
	mov	b,r4
	lcall	__gptrget
	mov	r2,a
	inc	dptr
	lcall	__gptrget
	mov	r3,a
	inc	dptr
	lcall	__gptrget
	mov	r4,a
	mov	dpl,r2
	mov	dph,r3
	mov	b,r4
	lcall	__gptrget
	mov	r2,a
	inc	dptr
	lcall	__gptrget
	mov	r3,a
	mov	a,sp
	add	a,#0xfa
	mov	r0,a
	mov	ar4,@r0
	inc	r0
	mov	a,@r0
	anl	a,#0x03
	mov	c,acc.0
	xch	a,r4
	rrc	a
	xch	a,r4
	rrc	a
	mov	c,acc.0
	xch	a,r4
	rrc	a
	xch	a,r4
	rrc	a
	xch	a,r4
	mov	r7,a
	push	ar3
	push	ar2
	mov	a,sp
	add	a,#0xf3
	mov	r0,a
	mov	a,@r0
	push	acc
	inc	r0
	mov	a,@r0
	push	acc
	mov	a,sp
	add	a,#0xf3
	mov	r0,a
	mov	a,@r0
	push	acc
	inc	r0
	mov	a,@r0
	push	acc
	inc	r0
	mov	a,@r0
	push	acc
	mov	a,#0x02
	push	acc
	clr	a
	push	acc
	push	ar4
	push	ar7
	lcall	00118$
	sjmp	00119$
00118$:
	push	ar2
	push	ar3
	mov	a,sp
	add	a,#0xef
	mov	r0,a
	mov	dpl,@r0
	inc	r0
	mov	dph,@r0
	inc	r0
	mov	b,@r0
	ret
00119$:
	mov	a,sp
	add	a,#0xf7
	mov	sp,a
	pop	ar2
	pop	ar3
	ljmp	00106$
00104$:
;	../contiki-sensinode/core/net/rime/rudolph1.c:130: c->cb->write_chunk(c, chunk * RUDOLPH1_DATASIZE,
	mov	r0,sp
	dec	r0
	dec	r0
	mov	a,#0x88
	add	a,@r0
	mov	r5,a
	clr	a
	inc	r0
	addc	a,@r0
	mov	r6,a
	inc	r0
	mov	ar7,@r0
	mov	dpl,r5
	mov	dph,r6
	mov	b,r7
	lcall	__gptrget
	mov	r5,a
	inc	dptr
	lcall	__gptrget
	mov	r6,a
	inc	dptr
	lcall	__gptrget
	mov	r7,a
	mov	dpl,r5
	mov	dph,r6
	mov	b,r7
	lcall	__gptrget
	mov	r5,a
	inc	dptr
	lcall	__gptrget
	mov	r6,a
	mov	a,sp
	add	a,#0xfa
	mov	r0,a
	mov	ar4,@r0
	inc	r0
	mov	a,@r0
	anl	a,#0x03
	mov	c,acc.0
	xch	a,r4
	rrc	a
	xch	a,r4
	rrc	a
	mov	c,acc.0
	xch	a,r4
	rrc	a
	xch	a,r4
	rrc	a
	xch	a,r4
	mov	r7,a
	push	ar6
	push	ar5
	mov	a,sp
	add	a,#0xf3
	mov	r0,a
	mov	a,@r0
	push	acc
	inc	r0
	mov	a,@r0
	push	acc
	mov	a,sp
	add	a,#0xf3
	mov	r0,a
	mov	a,@r0
	push	acc
	inc	r0
	mov	a,@r0
	push	acc
	inc	r0
	mov	a,@r0
	push	acc
	clr	a
	push	acc
	push	acc
	push	ar4
	push	ar7
	lcall	00120$
	sjmp	00121$
00120$:
	push	ar5
	push	ar6
	mov	a,sp
	add	a,#0xef
	mov	r0,a
	mov	dpl,@r0
	inc	r0
	mov	dph,@r0
	inc	r0
	mov	b,@r0
	ret
00121$:
	mov	a,sp
	add	a,#0xf7
	mov	sp,a
	pop	ar5
	pop	ar6
00106$:
	dec	sp
	dec	sp
	dec	sp
	ret
;------------------------------------------------------------
;Allocation info for local variables in function 'send_nack'
;------------------------------------------------------------
;c                         Allocated to stack - sp -5
;hdr                       Allocated to stack - sp -2
;------------------------------------------------------------
;	../contiki-sensinode/core/net/rime/rudolph1.c:136: send_nack(struct rudolph1_conn *c)
;	-----------------------------------------
;	 function send_nack
;	-----------------------------------------
_send_nack:
	push	dpl
	push	dph
	push	b
	inc	sp
	inc	sp
	inc	sp
;	../contiki-sensinode/core/net/rime/rudolph1.c:139: packetbuf_clear();
	lcall	_packetbuf_clear
;	../contiki-sensinode/core/net/rime/rudolph1.c:140: packetbuf_hdralloc(sizeof(struct rudolph1_hdr));
	mov	dptr,#0x0004
	lcall	_packetbuf_hdralloc
;	../contiki-sensinode/core/net/rime/rudolph1.c:141: hdr = packetbuf_hdrptr();
	lcall	_packetbuf_hdrptr
	mov	r2,dpl
	mov	r3,dph
	mov	r4,b
	mov	r0,sp
	dec	r0
	dec	r0
	mov	@r0,ar2
	inc	r0
	mov	@r0,ar3
	inc	r0
	mov	@r0,ar4
;	../contiki-sensinode/core/net/rime/rudolph1.c:143: hdr->type = TYPE_NACK;
	mov	r0,sp
	dec	r0
	dec	r0
	mov	dpl,@r0
	inc	r0
	mov	dph,@r0
	inc	r0
	mov	b,@r0
	mov	a,#0x01
	lcall	__gptrput
;	../contiki-sensinode/core/net/rime/rudolph1.c:144: hdr->version = c->version;
	mov	r0,sp
	dec	r0
	dec	r0
	add	a,@r0
	mov	r5,a
	clr	a
	inc	r0
	addc	a,@r0
	mov	r6,a
	inc	r0
	mov	ar7,@r0
	mov	a,sp
	add	a,#0xfb
	mov	r0,a
	mov	a,#0xA6
	add	a,@r0
	mov	r2,a
	clr	a
	inc	r0
	addc	a,@r0
	mov	r3,a
	inc	r0
	mov	ar4,@r0
	mov	dpl,r2
	mov	dph,r3
	mov	b,r4
	lcall	__gptrget
	mov	dpl,r5
	mov	dph,r6
	mov	b,r7
	lcall	__gptrput
;	../contiki-sensinode/core/net/rime/rudolph1.c:145: hdr->chunk = c->chunk;
	mov	r0,sp
	dec	r0
	dec	r0
	mov	a,#0x02
	add	a,@r0
	mov	r5,a
	clr	a
	inc	r0
	addc	a,@r0
	mov	r6,a
	inc	r0
	mov	ar7,@r0
	mov	a,sp
	add	a,#0xfb
	mov	r0,a
	mov	a,#0xA2
	add	a,@r0
	mov	r2,a
	clr	a
	inc	r0
	addc	a,@r0
	mov	r3,a
	inc	r0
	mov	ar4,@r0
	mov	dpl,r2
	mov	dph,r3
	mov	b,r4
	lcall	__gptrget
	mov	r2,a
	inc	dptr
	lcall	__gptrget
	mov	r3,a
	mov	dpl,r5
	mov	dph,r6
	mov	b,r7
	mov	a,r2
	lcall	__gptrput
	inc	dptr
	mov	a,r3
	lcall	__gptrput
;	../contiki-sensinode/core/net/rime/rudolph1.c:150: ipolite_send(&c->ipolite, NACK_TIMEOUT, sizeof(struct rudolph1_hdr));
	mov	a,sp
	add	a,#0xfb
	mov	r0,a
	mov	a,#0x5B
	add	a,@r0
	mov	r5,a
	clr	a
	inc	r0
	addc	a,@r0
	mov	r6,a
	inc	r0
	mov	ar7,@r0
	mov	a,#0x04
	push	acc
	mov	a,#0x20
	push	acc
	clr	a
	push	acc
	mov	dpl,r5
	mov	dph,r6
	mov	b,r7
	lcall	_ipolite_send
	dec	sp
	dec	sp
	dec	sp
	mov	a,sp
	add	a,#0xFA
	mov	sp,a
	ret
;------------------------------------------------------------
;Allocation info for local variables in function 'handle_data'
;------------------------------------------------------------
;p                         Allocated to stack - sp -19
;c                         Allocated to stack - sp -14
;sloc0                     Allocated to stack - sp -11
;sloc1                     Allocated to stack - sp -10
;sloc2                     Allocated to stack - sp -7
;sloc3                     Allocated to stack - sp -4
;sloc4                     Allocated to stack - sp -2
;------------------------------------------------------------
;	../contiki-sensinode/core/net/rime/rudolph1.c:154: handle_data(struct rudolph1_conn *c, struct rudolph1_datapacket *p)
;	-----------------------------------------
;	 function handle_data
;	-----------------------------------------
_handle_data:
	push	dpl
	push	dph
	push	b
	mov	a,sp
	add	a,#0x0C
;	../contiki-sensinode/core/net/rime/rudolph1.c:156: if(LT(c->version, p->h.version)) {
	mov	sp,a
	add	a,#0xf2
	mov	r0,a
	mov	a,#0xA6
	add	a,@r0
	mov	r2,a
	clr	a
	inc	r0
	addc	a,@r0
	mov	r3,a
	inc	r0
	mov	ar4,@r0
	mov	dpl,r2
	mov	dph,r3
	mov	b,r4
	mov	a,sp
	add	a,#0xf5
	mov	r0,a
	lcall	__gptrget
	mov	@r0,a
	mov	a,sp
	add	a,#0xed
	mov	r0,a
	mov	a,sp
	add	a,#0xf6
	mov	r1,a
	mov	a,@r0
	mov	@r1,a
	inc	r0
	inc	r1
	mov	a,@r0
	mov	@r1,a
	inc	r0
	inc	r1
	mov	a,@r0
	mov	@r1,a
	mov	a,sp
	add	a,#0xf6
	mov	r0,a
	mov	a,#0x01
	add	a,@r0
	mov	r5,a
	clr	a
	inc	r0
	addc	a,@r0
	mov	r6,a
	inc	r0
	mov	ar7,@r0
	mov	dpl,r5
	mov	dph,r6
	mov	b,r7
	lcall	__gptrget
	mov	r7,a
	mov	a,sp
	add	a,#0xf5
	mov	r0,a
	mov	a,@r0
	clr	c
	subb	a,r7
	mov	r6,a
	jb	acc.7,00142$
	ljmp	00117$
00142$:
;	../contiki-sensinode/core/net/rime/rudolph1.c:160: c->version = p->h.version;
	mov	dpl,r2
	mov	dph,r3
	mov	b,r4
	mov	a,r7
	lcall	__gptrput
;	../contiki-sensinode/core/net/rime/rudolph1.c:161: c->highest_chunk_heard = c->chunk = 0;
	mov	a,sp
	add	a,#0xf2
	mov	r0,a
	mov	a,#0xA4
	add	a,@r0
	mov	r7,a
	clr	a
	inc	r0
	addc	a,@r0
	mov	r5,a
	inc	r0
	mov	ar4,@r0
	mov	a,sp
	add	a,#0xf2
	mov	r0,a
	mov	a,#0xA2
	add	a,@r0
	mov	r2,a
	clr	a
	inc	r0
	addc	a,@r0
	mov	r3,a
	inc	r0
	mov	ar6,@r0
	mov	dpl,r2
	mov	dph,r3
	mov	b,r6
	clr	a
	lcall	__gptrput
	inc	dptr
	lcall	__gptrput
	mov	dpl,r7
	mov	dph,r5
	mov	b,r4
	lcall	__gptrput
	inc	dptr
	lcall	__gptrput
;	../contiki-sensinode/core/net/rime/rudolph1.c:162: if(p->h.chunk != 0) {
	mov	a,sp
	add	a,#0xf6
	mov	r0,a
	mov	a,#0x02
	add	a,@r0
	mov	r4,a
	clr	a
	inc	r0
	addc	a,@r0
	mov	r5,a
	inc	r0
	mov	ar6,@r0
	mov	dpl,r4
	mov	dph,r5
	mov	b,r6
	lcall	__gptrget
	mov	r4,a
	inc	dptr
	lcall	__gptrget
	mov	r5,a
	orl	a,r4
	jz	00102$
;	../contiki-sensinode/core/net/rime/rudolph1.c:163: send_nack(c);
	mov	a,sp
	add	a,#0xf2
	mov	r0,a
	mov	dpl,@r0
	inc	r0
	mov	dph,@r0
	inc	r0
	mov	b,@r0
	lcall	_send_nack
	ljmp	00119$
00102$:
;	../contiki-sensinode/core/net/rime/rudolph1.c:165: write_data(c, 0, p->data, p->datalen);
	mov	a,sp
	add	a,#0xf6
	mov	r0,a
	mov	a,#0x04
	add	a,@r0
	mov	r4,a
	clr	a
	inc	r0
	addc	a,@r0
	mov	r5,a
	inc	r0
	mov	ar6,@r0
	mov	dpl,r4
	mov	dph,r5
	mov	b,r6
	lcall	__gptrget
	mov	r4,a
	mov	r6,#0x00
	mov	a,sp
	add	a,#0xf6
	mov	r0,a
	mov	a,#0x05
	add	a,@r0
	mov	r2,a
	clr	a
	inc	r0
	addc	a,@r0
	mov	r3,a
	inc	r0
	mov	ar5,@r0
	push	ar4
	push	ar6
	push	ar2
	push	ar3
	push	ar5
	clr	a
	push	acc
	push	acc
	mov	a,sp
	add	a,#0xeb
	mov	r0,a
	mov	dpl,@r0
	inc	r0
	mov	dph,@r0
	inc	r0
	mov	b,@r0
	lcall	_write_data
	mov	a,sp
	add	a,#0xf9
;	../contiki-sensinode/core/net/rime/rudolph1.c:166: c->chunk = 1; /* Next chunk is 1. */
	mov	sp,a
	add	a,#0xf2
	mov	r0,a
	mov	a,#0xA2
	add	a,@r0
	mov	r4,a
	clr	a
	inc	r0
	addc	a,@r0
	mov	r5,a
	inc	r0
	mov	ar6,@r0
	mov	dpl,r4
	mov	dph,r5
	mov	b,r6
	mov	a,#0x01
	lcall	__gptrput
	inc	dptr
	clr	a
	lcall	__gptrput
	ljmp	00119$
00117$:
;	../contiki-sensinode/core/net/rime/rudolph1.c:169: } else if(p->h.version == c->version) {
	mov	a,sp
	add	a,#0xf5
	mov	r0,a
	mov	a,@r0
	cjne	a,ar7,00144$
	sjmp	00145$
00144$:
	ljmp	00119$
00145$:
;	../contiki-sensinode/core/net/rime/rudolph1.c:174: if(p->h.chunk == c->chunk) {
	mov	a,sp
	add	a,#0xf6
	mov	r0,a
	mov	a,#0x02
	add	a,@r0
	mov	r5,a
	clr	a
	inc	r0
	addc	a,@r0
	mov	r6,a
	inc	r0
	mov	ar7,@r0
	mov	dpl,r5
	mov	dph,r6
	mov	b,r7
	mov	a,sp
	add	a,#0xf9
	mov	r0,a
	lcall	__gptrget
	mov	@r0,a
	inc	dptr
	lcall	__gptrget
	inc	r0
	mov	@r0,a
	mov	a,sp
	add	a,#0xf2
	mov	r0,a
	mov	a,#0xA2
	add	a,@r0
	mov	r2,a
	clr	a
	inc	r0
	addc	a,@r0
	mov	r3,a
	inc	r0
	mov	ar4,@r0
	mov	dpl,r2
	mov	dph,r3
	mov	b,r4
	lcall	__gptrget
	mov	r3,a
	inc	dptr
	lcall	__gptrget
	mov	r4,a
	mov	a,sp
	add	a,#0xf9
	mov	r0,a
	mov	a,@r0
	cjne	a,ar3,00146$
	inc	r0
	mov	a,@r0
	cjne	a,ar4,00146$
	sjmp	00147$
00146$:
	ljmp	00110$
00147$:
;	../contiki-sensinode/core/net/rime/rudolph1.c:178: write_data(c, p->h.chunk, p->data, p->datalen);
	push	ar5
	push	ar6
	push	ar7
	mov	a,sp
	add	a,#0xf3
	mov	r0,a
	mov	a,#0x04
	add	a,@r0
	mov	r2,a
	clr	a
	inc	r0
	addc	a,@r0
	mov	r6,a
	inc	r0
	mov	ar7,@r0
	mov	dpl,r2
	mov	dph,r6
	mov	b,r7
	lcall	__gptrget
	mov	r2,a
	mov	r4,#0x00
	mov	a,sp
	add	a,#0xf3
	mov	r0,a
	mov	a,#0x05
	add	a,@r0
	mov	r5,a
	clr	a
	inc	r0
	addc	a,@r0
	mov	r6,a
	inc	r0
	mov	ar7,@r0
	push	ar7
	push	ar6
	push	ar5
	push	ar2
	push	ar4
	push	ar5
	push	ar6
	push	ar7
	mov	a,sp
	add	a,#0xee
	mov	r0,a
	mov	a,@r0
	push	acc
	inc	r0
	mov	a,@r0
	push	acc
	mov	a,sp
	add	a,#0xe5
	mov	r0,a
	mov	dpl,@r0
	inc	r0
	mov	dph,@r0
	inc	r0
	mov	b,@r0
	lcall	_write_data
	mov	a,sp
	add	a,#0xf9
	mov	sp,a
	pop	ar5
	pop	ar6
	pop	ar7
;	../contiki-sensinode/core/net/rime/rudolph1.c:179: if(c->highest_chunk_heard < c->chunk) {
	mov	a,sp
	add	a,#0xef
	mov	r0,a
	mov	a,#0xA4
	add	a,@r0
	mov	r4,a
	clr	a
	inc	r0
	addc	a,@r0
	mov	r3,a
	inc	r0
	mov	ar2,@r0
	mov	dpl,r4
	mov	dph,r3
	mov	b,r2
	lcall	__gptrget
	mov	r6,a
	inc	dptr
	lcall	__gptrget
	mov	r7,a
	mov	a,sp
	add	a,#0xef
	mov	r0,a
	mov	a,sp
	add	a,#0xfb
	mov	r1,a
	mov	a,#0xA2
	add	a,@r0
	mov	@r1,a
	clr	a
	inc	r0
	addc	a,@r0
	inc	r1
	mov	@r1,a
	inc	r0
	inc	r1
	mov	a,@r0
	mov	@r1,a
	mov	a,sp
	add	a,#0xfb
	mov	r0,a
	mov	dpl,@r0
	inc	r0
	mov	dph,@r0
	inc	r0
	mov	b,@r0
	mov	a,sp
	add	a,#0xf9
	mov	r1,a
	lcall	__gptrget
	mov	@r1,a
	inc	dptr
	lcall	__gptrget
	inc	r1
	mov	@r1,a
	mov	a,sp
	add	a,#0xf9
	mov	r0,a
	clr	c
	mov	a,r6
	subb	a,@r0
	mov	a,r7
	inc	r0
	subb	a,@r0
	pop	ar7
	pop	ar6
	pop	ar5
	jnc	00105$
;	../contiki-sensinode/core/net/rime/rudolph1.c:180: c->highest_chunk_heard = c->chunk;
	mov	dpl,r4
	mov	dph,r3
	mov	b,r2
	mov	a,sp
	add	a,#0xfc
	mov	r0,a
	mov	a,@r0
	lcall	__gptrput
	inc	dptr
	inc	r0
	mov	a,@r0
	lcall	__gptrput
00105$:
;	../contiki-sensinode/core/net/rime/rudolph1.c:182: c->chunk++;
	push	ar5
	push	ar6
	push	ar7
	mov	a,sp
	add	a,#0xfb
	mov	r0,a
	mov	dpl,@r0
	inc	r0
	mov	dph,@r0
	inc	r0
	mov	b,@r0
	lcall	__gptrget
	mov	r2,a
	inc	dptr
	lcall	__gptrget
	mov	r7,a
	inc	r2
	cjne	r2,#0x00,00149$
	inc	r7
00149$:
	mov	a,sp
	add	a,#0xfb
	mov	r0,a
	mov	dpl,@r0
	inc	r0
	mov	dph,@r0
	inc	r0
	mov	b,@r0
	mov	a,r2
	lcall	__gptrput
	inc	dptr
	mov	a,r7
	lcall	__gptrput
	pop	ar7
	pop	ar6
	pop	ar5
	sjmp	00111$
00110$:
;	../contiki-sensinode/core/net/rime/rudolph1.c:183: } else if(p->h.chunk > c->chunk) {
	mov	a,sp
	add	a,#0xf9
	mov	r0,a
	clr	c
	mov	a,r3
	subb	a,@r0
	mov	a,r4
	inc	r0
	subb	a,@r0
	jnc	00111$
;	../contiki-sensinode/core/net/rime/rudolph1.c:187: send_nack(c);
	mov	a,sp
	add	a,#0xf2
	mov	r0,a
	mov	dpl,@r0
	inc	r0
	mov	dph,@r0
	inc	r0
	mov	b,@r0
	push	ar7
	push	ar6
	push	ar5
	lcall	_send_nack
	pop	ar5
	pop	ar6
	pop	ar7
;	../contiki-sensinode/core/net/rime/rudolph1.c:188: c->highest_chunk_heard = p->h.chunk;
	mov	a,sp
	add	a,#0xf2
	mov	r0,a
	mov	r1,sp
	dec	r1
	dec	r1
	mov	a,#0xA4
	add	a,@r0
	mov	@r1,a
	clr	a
	inc	r0
	addc	a,@r0
	inc	r1
	mov	@r1,a
	inc	r0
	inc	r1
	mov	a,@r0
	mov	@r1,a
	mov	dpl,r5
	mov	dph,r6
	mov	b,r7
	lcall	__gptrget
	mov	r3,a
	inc	dptr
	lcall	__gptrget
	mov	r4,a
	mov	r0,sp
	dec	r0
	dec	r0
	mov	dpl,@r0
	inc	r0
	mov	dph,@r0
	inc	r0
	mov	b,@r0
	mov	a,r3
	lcall	__gptrput
	inc	dptr
	mov	a,r4
	lcall	__gptrput
;	../contiki-sensinode/core/net/rime/rudolph1.c:189: } else if(p->h.chunk < c->chunk) {
00111$:
;	../contiki-sensinode/core/net/rime/rudolph1.c:196: if(c->highest_chunk_heard > p->h.chunk) {
	mov	a,sp
	add	a,#0xf2
	mov	r0,a
	mov	a,#0xA4
	add	a,@r0
	mov	r2,a
	clr	a
	inc	r0
	addc	a,@r0
	mov	r3,a
	inc	r0
	mov	ar4,@r0
	mov	dpl,r2
	mov	dph,r3
	mov	b,r4
	lcall	__gptrget
	mov	r2,a
	inc	dptr
	lcall	__gptrget
	mov	r3,a
	mov	dpl,r5
	mov	dph,r6
	mov	b,r7
	lcall	__gptrget
	mov	r5,a
	inc	dptr
	lcall	__gptrget
	mov	r6,a
	clr	c
	mov	a,r5
	subb	a,r2
	mov	a,r6
	subb	a,r3
	jnc	00119$
;	../contiki-sensinode/core/net/rime/rudolph1.c:197: send_nack(c);
	mov	a,sp
	add	a,#0xf2
	mov	r0,a
	mov	dpl,@r0
	inc	r0
	mov	dph,@r0
	inc	r0
	mov	b,@r0
	lcall	_send_nack
00119$:
	mov	a,sp
	add	a,#0xF1
	mov	sp,a
	ret
;------------------------------------------------------------
;Allocation info for local variables in function 'recv_trickle'
;------------------------------------------------------------
;trickle                   Allocated to registers r5 r6 r7 
;c                         Allocated to registers r5 r6 r7 
;p                         Allocated to registers r2 r3 r4 
;------------------------------------------------------------
;	../contiki-sensinode/core/net/rime/rudolph1.c:206: recv_trickle(struct trickle_conn *trickle)
;	-----------------------------------------
;	 function recv_trickle
;	-----------------------------------------
_recv_trickle:
	mov	r5,dpl
	mov	r6,dph
	mov	r7,b
;	../contiki-sensinode/core/net/rime/rudolph1.c:208: struct rudolph1_conn *c = (struct rudolph1_conn *)trickle;
;	../contiki-sensinode/core/net/rime/rudolph1.c:209: struct rudolph1_datapacket *p = packetbuf_dataptr();
	push	ar7
	push	ar6
	push	ar5
	lcall	_packetbuf_dataptr
	mov	r2,dpl
	mov	r3,dph
	mov	r4,b
	pop	ar5
	pop	ar6
	pop	ar7
;	../contiki-sensinode/core/net/rime/rudolph1.c:211: if(p->h.type == TYPE_DATA) {
	mov	dpl,r2
	mov	dph,r3
	mov	b,r4
	lcall	__gptrget
	jnz	00103$
;	../contiki-sensinode/core/net/rime/rudolph1.c:215: handle_data(c, p);
	push	ar2
	push	ar3
	push	ar4
	mov	dpl,r5
	mov	dph,r6
	mov	b,r7
	lcall	_handle_data
	dec	sp
	dec	sp
	dec	sp
00103$:
	ret
;------------------------------------------------------------
;Allocation info for local variables in function 'sent_ipolite'
;------------------------------------------------------------
;ipolite                   Allocated to registers 
;------------------------------------------------------------
;	../contiki-sensinode/core/net/rime/rudolph1.c:220: sent_ipolite(struct ipolite_conn *ipolite)
;	-----------------------------------------
;	 function sent_ipolite
;	-----------------------------------------
_sent_ipolite:
;	../contiki-sensinode/core/net/rime/rudolph1.c:224: }
	ret
;------------------------------------------------------------
;Allocation info for local variables in function 'dropped_ipolite'
;------------------------------------------------------------
;ipolite                   Allocated to registers 
;------------------------------------------------------------
;	../contiki-sensinode/core/net/rime/rudolph1.c:227: dropped_ipolite(struct ipolite_conn *ipolite)
;	-----------------------------------------
;	 function dropped_ipolite
;	-----------------------------------------
_dropped_ipolite:
;	../contiki-sensinode/core/net/rime/rudolph1.c:231: }
	ret
;------------------------------------------------------------
;Allocation info for local variables in function 'recv_ipolite'
;------------------------------------------------------------
;from                      Allocated to stack - sp -10
;ipolite                   Allocated to registers r5 r6 r7 
;c                         Allocated to stack - sp -5
;p                         Allocated to stack - sp -2
;sloc0                     Allocated to stack - sp +4
;------------------------------------------------------------
;	../contiki-sensinode/core/net/rime/rudolph1.c:234: recv_ipolite(struct ipolite_conn *ipolite, const rimeaddr_t *from)
;	-----------------------------------------
;	 function recv_ipolite
;	-----------------------------------------
_recv_ipolite:
	mov	a,sp
	add	a,#0x06
	mov	sp,a
	mov	r5,dpl
	mov	r6,dph
	mov	r7,b
;	../contiki-sensinode/core/net/rime/rudolph1.c:236: struct rudolph1_conn *c = (struct rudolph1_conn *)
	mov	a,r5
	add	a,#0xA5
	mov	r5,a
	mov	a,r6
	addc	a,#0xFF
	mov	r6,a
	mov	a,sp
	add	a,#0xfb
	mov	r0,a
	mov	@r0,ar5
	inc	r0
	mov	@r0,ar6
	inc	r0
	mov	@r0,ar7
;	../contiki-sensinode/core/net/rime/rudolph1.c:238: struct rudolph1_datapacket *p = packetbuf_dataptr();
	lcall	_packetbuf_dataptr
	mov	r2,dpl
	mov	r3,dph
	mov	r4,b
	mov	r0,sp
	dec	r0
	dec	r0
	mov	@r0,ar2
	inc	r0
	mov	@r0,ar3
	inc	r0
	mov	@r0,ar4
;	../contiki-sensinode/core/net/rime/rudolph1.c:244: c->nacks++;
	mov	a,sp
	add	a,#0xfb
	mov	r0,a
	mov	a,#0xA7
	add	a,@r0
	mov	r5,a
	clr	a
	inc	r0
	addc	a,@r0
	mov	r6,a
	inc	r0
	mov	ar7,@r0
	mov	dpl,r5
	mov	dph,r6
	mov	b,r7
	lcall	__gptrget
	mov	r4,a
	inc	r4
	mov	dpl,r5
	mov	dph,r6
	mov	b,r7
	mov	a,r4
	lcall	__gptrput
;	../contiki-sensinode/core/net/rime/rudolph1.c:246: if(p->h.type == TYPE_NACK) {
	mov	r0,sp
	dec	r0
	dec	r0
	mov	dpl,@r0
	inc	r0
	mov	dph,@r0
	inc	r0
	mov	b,@r0
	lcall	__gptrget
	mov	r7,a
	cjne	r7,#0x01,00130$
	sjmp	00131$
00130$:
	ljmp	00111$
00131$:
;	../contiki-sensinode/core/net/rime/rudolph1.c:251: if(p->h.version == c->version) {
	mov	r0,sp
	dec	r0
	dec	r0
	mov	a,#0x01
	add	a,@r0
	mov	r4,a
	clr	a
	inc	r0
	addc	a,@r0
	mov	r5,a
	inc	r0
	mov	ar6,@r0
	mov	dpl,r4
	mov	dph,r5
	mov	b,r6
	lcall	__gptrget
	mov	r6,a
	mov	a,sp
	add	a,#0xfb
	mov	r0,a
	mov	a,#0xA6
	add	a,@r0
	mov	r3,a
	clr	a
	inc	r0
	addc	a,@r0
	mov	r4,a
	inc	r0
	mov	ar5,@r0
	mov	dpl,r3
	mov	dph,r4
	mov	b,r5
	lcall	__gptrget
	mov	r5,a
	mov	a,r6
	cjne	a,ar5,00132$
	sjmp	00133$
00132$:
	ljmp	00106$
00133$:
;	../contiki-sensinode/core/net/rime/rudolph1.c:252: if(p->h.chunk < c->chunk) {
	mov	r0,sp
	dec	r0
	dec	r0
	mov	a,#0x02
	add	a,@r0
	mov	r2,a
	clr	a
	inc	r0
	addc	a,@r0
	mov	r3,a
	inc	r0
	mov	ar4,@r0
	mov	dpl,r2
	mov	dph,r3
	mov	b,r4
	lcall	__gptrget
	mov	r7,a
	inc	dptr
	lcall	__gptrget
	mov	r6,a
	mov	a,sp
	add	a,#0xfb
	mov	r0,a
	mov	a,#0xA2
	add	a,@r0
	mov	r2,a
	clr	a
	inc	r0
	addc	a,@r0
	mov	r3,a
	inc	r0
	mov	ar4,@r0
	mov	dpl,r2
	mov	dph,r3
	mov	b,r4
	lcall	__gptrget
	mov	r2,a
	inc	dptr
	lcall	__gptrget
	mov	r3,a
	clr	c
	mov	a,r7
	subb	a,r2
	mov	a,r6
	subb	a,r3
	jc	00134$
	ljmp	00113$
00134$:
;	../contiki-sensinode/core/net/rime/rudolph1.c:257: format_data(c, p->h.chunk);
	push	ar7
	push	ar6
	mov	a,sp
	add	a,#0xf9
	mov	r0,a
	mov	dpl,@r0
	inc	r0
	mov	dph,@r0
	inc	r0
	mov	b,@r0
	lcall	_format_data
	dec	sp
	dec	sp
;	../contiki-sensinode/core/net/rime/rudolph1.c:258: ipolite_send(&c->ipolite, REPAIR_TIMEOUT, sizeof(struct rudolph1_hdr));
	mov	a,sp
	add	a,#0xfb
	mov	r0,a
	mov	a,#0x5B
	add	a,@r0
	mov	r2,a
	clr	a
	inc	r0
	addc	a,@r0
	mov	r3,a
	inc	r0
	mov	ar4,@r0
	mov	a,#0x04
	push	acc
	mov	a,#0x20
	push	acc
	clr	a
	push	acc
	mov	dpl,r2
	mov	dph,r3
	mov	b,r4
	lcall	_ipolite_send
	dec	sp
	dec	sp
	dec	sp
	ljmp	00113$
00106$:
;	../contiki-sensinode/core/net/rime/rudolph1.c:260: } else if(LT(p->h.version, c->version)) {
	mov	a,r6
	clr	c
	subb	a,r5
	mov	r6,a
	jb	acc.7,00135$
	ljmp	00113$
00135$:
;	../contiki-sensinode/core/net/rime/rudolph1.c:261: format_data(c, 0);
	clr	a
	push	acc
	push	acc
	mov	a,sp
	add	a,#0xf9
	mov	r0,a
	mov	dpl,@r0
	inc	r0
	mov	dph,@r0
	inc	r0
	mov	b,@r0
	lcall	_format_data
	dec	sp
	dec	sp
;	../contiki-sensinode/core/net/rime/rudolph1.c:262: ipolite_send(&c->ipolite, c->send_interval / 2, sizeof(struct rudolph1_hdr));
	mov	a,sp
	add	a,#0xfb
	mov	r0,a
	mov	a,#0xA0
	add	a,@r0
	mov	r4,a
	clr	a
	inc	r0
	addc	a,@r0
	mov	r5,a
	inc	r0
	mov	ar6,@r0
	mov	dpl,r4
	mov	dph,r5
	mov	b,r6
	lcall	__gptrget
	mov	r4,a
	inc	dptr
	lcall	__gptrget
	clr	c
	rrc	a
	xch	a,r4
	rrc	a
	xch	a,r4
	mov	r5,a
	mov	a,sp
	add	a,#0xfb
	mov	r0,a
	mov	a,#0x5B
	add	a,@r0
	mov	r2,a
	clr	a
	inc	r0
	addc	a,@r0
	mov	r3,a
	inc	r0
	mov	ar6,@r0
	mov	a,#0x04
	push	acc
	push	ar4
	push	ar5
	mov	dpl,r2
	mov	dph,r3
	mov	b,r6
	lcall	_ipolite_send
	dec	sp
	dec	sp
	dec	sp
	sjmp	00113$
00111$:
;	../contiki-sensinode/core/net/rime/rudolph1.c:264: } else if(p->h.type == TYPE_DATA) {
	mov	a,r7
	jnz	00113$
;	../contiki-sensinode/core/net/rime/rudolph1.c:269: handle_data(c, p);
	mov	r0,sp
	dec	r0
	dec	r0
	mov	a,@r0
	push	acc
	inc	r0
	mov	a,@r0
	push	acc
	inc	r0
	mov	a,@r0
	push	acc
	mov	a,sp
	add	a,#0xf8
	mov	r0,a
	mov	dpl,@r0
	inc	r0
	mov	dph,@r0
	inc	r0
	mov	b,@r0
	lcall	_handle_data
	dec	sp
	dec	sp
	dec	sp
00113$:
	mov	a,sp
	add	a,#0xFA
	mov	sp,a
	ret
;------------------------------------------------------------
;Allocation info for local variables in function 'send_next_packet'
;------------------------------------------------------------
;ptr                       Allocated to registers r5 r6 r7 
;c                         Allocated to stack - sp -2
;len                       Allocated to registers r3 r4 
;sloc0                     Allocated to stack - sp -7
;sloc1                     Allocated to stack - sp -4
;------------------------------------------------------------
;	../contiki-sensinode/core/net/rime/rudolph1.c:274: send_next_packet(void *ptr)
;	-----------------------------------------
;	 function send_next_packet
;	-----------------------------------------
_send_next_packet:
	mov	a,sp
	add	a,#0x08
	mov	sp,a
	mov	r5,dpl
	mov	r6,dph
	mov	r7,b
;	../contiki-sensinode/core/net/rime/rudolph1.c:276: struct rudolph1_conn *c = ptr;
	mov	r0,sp
	dec	r0
	dec	r0
	mov	@r0,ar5
	inc	r0
	mov	@r0,ar6
	inc	r0
	mov	@r0,ar7
;	../contiki-sensinode/core/net/rime/rudolph1.c:278: if(c->nacks == 0) {
	mov	r0,sp
	dec	r0
	dec	r0
	mov	a,#0xA7
	add	a,@r0
	mov	r2,a
	clr	a
	inc	r0
	addc	a,@r0
	mov	r3,a
	inc	r0
	mov	ar4,@r0
	mov	dpl,r2
	mov	dph,r3
	mov	b,r4
	lcall	__gptrget
	jz	00114$
	ljmp	00104$
00114$:
;	../contiki-sensinode/core/net/rime/rudolph1.c:279: len = format_data(c, c->chunk);
	push	ar2
	push	ar3
	push	ar4
	mov	a,sp
	add	a,#0xfb
	mov	r0,a
	mov	a,sp
	add	a,#0xf6
	mov	r1,a
	mov	a,#0xA2
	add	a,@r0
	mov	@r1,a
	clr	a
	inc	r0
	addc	a,@r0
	inc	r1
	mov	@r1,a
	inc	r0
	inc	r1
	mov	a,@r0
	mov	@r1,a
	mov	a,sp
	add	a,#0xf6
	mov	r0,a
	mov	dpl,@r0
	inc	r0
	mov	dph,@r0
	inc	r0
	mov	b,@r0
	lcall	__gptrget
	mov	r3,a
	inc	dptr
	lcall	__gptrget
	mov	r4,a
	push	ar2
	push	ar3
	push	ar4
	mov	a,sp
	add	a,#0xf8
	mov	r0,a
	mov	dpl,@r0
	inc	r0
	mov	dph,@r0
	inc	r0
	mov	b,@r0
	lcall	_format_data
	mov	r3,dpl
	mov	r4,dph
	dec	sp
	dec	sp
	pop	ar2
;	../contiki-sensinode/core/net/rime/rudolph1.c:280: trickle_send(&c->trickle);
	mov	a,sp
	add	a,#0xfb
	mov	r0,a
	mov	dpl,@r0
	inc	r0
	mov	dph,@r0
	inc	r0
	mov	b,@r0
	push	ar4
	push	ar3
	push	ar2
	lcall	_trickle_send
	pop	ar2
	pop	ar3
	pop	ar4
;	../contiki-sensinode/core/net/rime/rudolph1.c:281: if(len == RUDOLPH1_DATASIZE) {
	cjne	r3,#0x40,00115$
	cjne	r4,#0x00,00115$
	sjmp	00116$
00115$:
	pop	ar4
	pop	ar3
	pop	ar2
	ljmp	00102$
00116$:
;	../contiki-sensinode/core/net/rime/rudolph1.c:282: ctimer_set(&c->t, c->send_interval, send_next_packet, c);
	mov	a,sp
	add	a,#0xfb
	mov	r0,a
	mov	ar2,@r0
	inc	r0
	mov	ar3,@r0
	inc	r0
	mov	ar4,@r0
	mov	a,sp
	add	a,#0xfb
	mov	r0,a
	mov	a,#0xA0
	add	a,@r0
	mov	r5,a
	clr	a
	inc	r0
	addc	a,@r0
	mov	r6,a
	inc	r0
	mov	ar7,@r0
	mov	dpl,r5
	mov	dph,r6
	mov	b,r7
	mov	a,sp
	add	a,#0xf9
	mov	r0,a
	lcall	__gptrget
	mov	@r0,a
	inc	dptr
	lcall	__gptrget
	inc	r0
	mov	@r0,a
	mov	a,sp
	add	a,#0xfb
	mov	r0,a
	mov	a,#0x8B
	add	a,@r0
	mov	r5,a
	clr	a
	inc	r0
	addc	a,@r0
	mov	r6,a
	inc	r0
	mov	ar7,@r0
	push	ar4
	push	ar3
	push	ar2
	push	ar2
	push	ar3
	push	ar4
	mov	a,#_send_next_packet
	push	acc
	mov	a,#(_send_next_packet >> 8)
	push	acc
	mov	a,sp
	add	a,#0xf1
	mov	r0,a
	mov	a,@r0
	push	acc
	inc	r0
	mov	a,@r0
	push	acc
	mov	dpl,r5
	mov	dph,r6
	mov	b,r7
	lcall	_ctimer_set
	mov	a,sp
	add	a,#0xf9
	mov	sp,a
	pop	ar2
	pop	ar3
	pop	ar4
;	../contiki-sensinode/core/net/rime/rudolph1.c:294: c->nacks = 0;
	pop	ar4
	pop	ar3
	pop	ar2
;	../contiki-sensinode/core/net/rime/rudolph1.c:282: ctimer_set(&c->t, c->send_interval, send_next_packet, c);
00102$:
;	../contiki-sensinode/core/net/rime/rudolph1.c:288: c->highest_chunk_heard = c->chunk;
	push	ar2
	push	ar3
	push	ar4
	mov	a,sp
	add	a,#0xfb
	mov	r0,a
	mov	a,#0xA4
	add	a,@r0
	mov	r5,a
	clr	a
	inc	r0
	addc	a,@r0
	mov	r6,a
	inc	r0
	mov	ar7,@r0
	mov	a,sp
	add	a,#0xf6
	mov	r0,a
	mov	dpl,@r0
	inc	r0
	mov	dph,@r0
	inc	r0
	mov	b,@r0
	lcall	__gptrget
	mov	r3,a
	inc	dptr
	lcall	__gptrget
	mov	r4,a
	mov	dpl,r5
	mov	dph,r6
	mov	b,r7
	mov	a,r3
	lcall	__gptrput
	inc	dptr
	mov	a,r4
	lcall	__gptrput
;	../contiki-sensinode/core/net/rime/rudolph1.c:289: c->chunk++;
	mov	a,sp
	add	a,#0xf6
	mov	r0,a
	mov	dpl,@r0
	inc	r0
	mov	dph,@r0
	inc	r0
	mov	b,@r0
	lcall	__gptrget
	mov	r6,a
	inc	dptr
	lcall	__gptrget
	mov	r7,a
	inc	r6
	cjne	r6,#0x00,00117$
	inc	r7
00117$:
	mov	a,sp
	add	a,#0xf6
	mov	r0,a
	mov	dpl,@r0
	inc	r0
	mov	dph,@r0
	inc	r0
	mov	b,@r0
	mov	a,r6
	lcall	__gptrput
	inc	dptr
	mov	a,r7
	lcall	__gptrput
	pop	ar4
	pop	ar3
	pop	ar2
	ljmp	00105$
00104$:
;	../contiki-sensinode/core/net/rime/rudolph1.c:292: ctimer_set(&c->t, c->send_interval, send_next_packet, c);
	push	ar2
	push	ar3
	push	ar4
	mov	a,sp
	add	a,#0xfb
	mov	r0,a
	mov	ar5,@r0
	inc	r0
	mov	ar6,@r0
	inc	r0
	mov	ar7,@r0
	mov	a,sp
	add	a,#0xfb
	mov	r0,a
	mov	a,#0xA0
	add	a,@r0
	mov	r2,a
	clr	a
	inc	r0
	addc	a,@r0
	mov	r3,a
	inc	r0
	mov	ar4,@r0
	mov	dpl,r2
	mov	dph,r3
	mov	b,r4
	mov	a,sp
	add	a,#0xf9
	mov	r0,a
	lcall	__gptrget
	mov	@r0,a
	inc	dptr
	lcall	__gptrget
	inc	r0
	mov	@r0,a
	mov	a,sp
	add	a,#0xfb
	mov	r0,a
	mov	a,#0x8B
	add	a,@r0
	mov	r2,a
	clr	a
	inc	r0
	addc	a,@r0
	mov	r3,a
	inc	r0
	mov	ar4,@r0
	push	ar4
	push	ar3
	push	ar2
	push	ar5
	push	ar6
	push	ar7
	mov	a,#_send_next_packet
	push	acc
	mov	a,#(_send_next_packet >> 8)
	push	acc
	mov	a,sp
	add	a,#0xf1
	mov	r0,a
	mov	a,@r0
	push	acc
	inc	r0
	mov	a,@r0
	push	acc
	mov	dpl,r2
	mov	dph,r3
	mov	b,r4
	lcall	_ctimer_set
	mov	a,sp
	add	a,#0xf9
	mov	sp,a
	pop	ar2
	pop	ar3
	pop	ar4
;	../contiki-sensinode/core/net/rime/rudolph1.c:294: c->nacks = 0;
	pop	ar4
	pop	ar3
	pop	ar2
;	../contiki-sensinode/core/net/rime/rudolph1.c:292: ctimer_set(&c->t, c->send_interval, send_next_packet, c);
00105$:
;	../contiki-sensinode/core/net/rime/rudolph1.c:294: c->nacks = 0;
	mov	dpl,r2
	mov	dph,r3
	mov	b,r4
	clr	a
	lcall	__gptrput
	mov	a,sp
	add	a,#0xF8
	mov	sp,a
	ret
;------------------------------------------------------------
;Allocation info for local variables in function 'rudolph1_open'
;------------------------------------------------------------
;channel                   Allocated to stack - sp -6
;cb                        Allocated to stack - sp -9
;c                         Allocated to stack - sp -2
;------------------------------------------------------------
;	../contiki-sensinode/core/net/rime/rudolph1.c:302: rudolph1_open(struct rudolph1_conn *c, uint16_t channel,
;	-----------------------------------------
;	 function rudolph1_open
;	-----------------------------------------
_rudolph1_open:
	push	dpl
	push	dph
	push	b
;	../contiki-sensinode/core/net/rime/rudolph1.c:305: trickle_open(&c->trickle, TRICKLE_INTERVAL, channel, &trickle);
	mov	a,#_trickle
	push	acc
	mov	a,#(_trickle >> 8)
	push	acc
	mov	a,#0x80
	push	acc
	mov	a,sp
	add	a,#0xf7
	mov	r0,a
	mov	a,@r0
	push	acc
	inc	r0
	mov	a,@r0
	push	acc
	mov	a,#0x40
	push	acc
	clr	a
	push	acc
	mov	a,sp
	add	a,#0xf7
	mov	r0,a
	mov	dpl,@r0
	inc	r0
	mov	dph,@r0
	inc	r0
	mov	b,@r0
	lcall	_trickle_open
	mov	a,sp
	add	a,#0xf9
;	../contiki-sensinode/core/net/rime/rudolph1.c:306: ipolite_open(&c->ipolite, channel + 1, 1, &ipolite);
	mov	sp,a
	add	a,#0xfa
	mov	r0,a
	mov	a,#0x01
	add	a,@r0
	mov	r3,a
	clr	a
	inc	r0
	addc	a,@r0
	mov	r4,a
	mov	r0,sp
	dec	r0
	dec	r0
	mov	a,#0x5B
	add	a,@r0
	mov	r2,a
	clr	a
	inc	r0
	addc	a,@r0
	mov	r6,a
	inc	r0
	mov	ar7,@r0
	mov	a,#_ipolite
	push	acc
	mov	a,#(_ipolite >> 8)
	push	acc
	mov	a,#0x80
	push	acc
	rl	a
	push	acc
	push	ar3
	push	ar4
	mov	dpl,r2
	mov	dph,r6
	mov	b,r7
	lcall	_ipolite_open
	mov	a,sp
	add	a,#0xfa
	mov	sp,a
;	../contiki-sensinode/core/net/rime/rudolph1.c:307: c->cb = cb;
	mov	r0,sp
	dec	r0
	dec	r0
	mov	a,#0x88
	add	a,@r0
	mov	r5,a
	clr	a
	inc	r0
	addc	a,@r0
	mov	r6,a
	inc	r0
	mov	ar7,@r0
	mov	dpl,r5
	mov	dph,r6
	mov	b,r7
	mov	a,sp
	add	a,#0xf7
	mov	r0,a
	mov	a,@r0
	lcall	__gptrput
	inc	dptr
	inc	r0
	mov	a,@r0
	lcall	__gptrput
	inc	dptr
	inc	r0
	mov	a,@r0
	lcall	__gptrput
;	../contiki-sensinode/core/net/rime/rudolph1.c:308: c->version = 0;
	mov	r0,sp
	dec	r0
	dec	r0
	mov	a,#0xA6
	add	a,@r0
	mov	r5,a
	clr	a
	inc	r0
	addc	a,@r0
	mov	r6,a
	inc	r0
	mov	ar7,@r0
	mov	dpl,r5
	mov	dph,r6
	mov	b,r7
	clr	a
	lcall	__gptrput
;	../contiki-sensinode/core/net/rime/rudolph1.c:309: c->send_interval = DEFAULT_SEND_INTERVAL;
	mov	r0,sp
	dec	r0
	dec	r0
	mov	a,#0xA0
	add	a,@r0
	mov	r5,a
	clr	a
	inc	r0
	addc	a,@r0
	mov	r6,a
	inc	r0
	mov	ar7,@r0
	mov	dpl,r5
	mov	dph,r6
	mov	b,r7
	clr	a
	lcall	__gptrput
	inc	dptr
	inc	a
	lcall	__gptrput
	dec	sp
	dec	sp
	dec	sp
	ret
;------------------------------------------------------------
;Allocation info for local variables in function 'rudolph1_close'
;------------------------------------------------------------
;c                         Allocated to registers r5 r6 r7 
;------------------------------------------------------------
;	../contiki-sensinode/core/net/rime/rudolph1.c:313: rudolph1_close(struct rudolph1_conn *c)
;	-----------------------------------------
;	 function rudolph1_close
;	-----------------------------------------
_rudolph1_close:
;	../contiki-sensinode/core/net/rime/rudolph1.c:315: trickle_close(&c->trickle);
	mov	r5,dpl
	mov	r6,dph
	mov	r7,b
	push	ar7
	push	ar6
	push	ar5
	lcall	_trickle_close
	pop	ar5
	pop	ar6
	pop	ar7
;	../contiki-sensinode/core/net/rime/rudolph1.c:316: ipolite_close(&c->ipolite);
	mov	a,#0x5B
	add	a,r5
	mov	r5,a
	clr	a
	addc	a,r6
	mov	r6,a
	mov	dpl,r5
	mov	dph,r6
	mov	b,r7
	ljmp	_ipolite_close
;------------------------------------------------------------
;Allocation info for local variables in function 'rudolph1_send'
;------------------------------------------------------------
;send_interval             Allocated to stack - sp -6
;c                         Allocated to stack - sp -2
;------------------------------------------------------------
;	../contiki-sensinode/core/net/rime/rudolph1.c:320: rudolph1_send(struct rudolph1_conn *c, clock_time_t send_interval)
;	-----------------------------------------
;	 function rudolph1_send
;	-----------------------------------------
_rudolph1_send:
	push	dpl
	push	dph
	push	b
;	../contiki-sensinode/core/net/rime/rudolph1.c:322: c->version++;
	mov	r0,sp
	dec	r0
	dec	r0
	mov	a,#0xA6
	add	a,@r0
	mov	r2,a
	clr	a
	inc	r0
	addc	a,@r0
	mov	r3,a
	inc	r0
	mov	ar4,@r0
	mov	dpl,r2
	mov	dph,r3
	mov	b,r4
	lcall	__gptrget
	mov	r7,a
	inc	r7
	mov	dpl,r2
	mov	dph,r3
	mov	b,r4
	mov	a,r7
	lcall	__gptrput
;	../contiki-sensinode/core/net/rime/rudolph1.c:323: c->chunk = c->highest_chunk_heard = 0;
	mov	r0,sp
	dec	r0
	dec	r0
	mov	a,#0xA2
	add	a,@r0
	mov	r5,a
	clr	a
	inc	r0
	addc	a,@r0
	mov	r6,a
	inc	r0
	mov	ar7,@r0
	mov	r0,sp
	dec	r0
	dec	r0
	mov	a,#0xA4
	add	a,@r0
	mov	r2,a
	clr	a
	inc	r0
	addc	a,@r0
	mov	r3,a
	inc	r0
	mov	ar4,@r0
	mov	dpl,r2
	mov	dph,r3
	mov	b,r4
	clr	a
	lcall	__gptrput
	inc	dptr
	lcall	__gptrput
	mov	dpl,r5
	mov	dph,r6
	mov	b,r7
	lcall	__gptrput
	inc	dptr
	lcall	__gptrput
;	../contiki-sensinode/core/net/rime/rudolph1.c:325: format_data(c, 0);
	push	acc
	push	acc
	mov	a,sp
	add	a,#0xfc
	mov	r0,a
	mov	dpl,@r0
	inc	r0
	mov	dph,@r0
	inc	r0
	mov	b,@r0
	lcall	_format_data
	dec	sp
	dec	sp
;	../contiki-sensinode/core/net/rime/rudolph1.c:326: trickle_send(&c->trickle);
	mov	r0,sp
	dec	r0
	dec	r0
	mov	dpl,@r0
	inc	r0
	mov	dph,@r0
	inc	r0
	mov	b,@r0
	lcall	_trickle_send
;	../contiki-sensinode/core/net/rime/rudolph1.c:327: c->chunk++;
	mov	r0,sp
	dec	r0
	dec	r0
	mov	a,#0xA2
	add	a,@r0
	mov	r5,a
	clr	a
	inc	r0
	addc	a,@r0
	mov	r6,a
	inc	r0
	mov	ar7,@r0
	mov	dpl,r5
	mov	dph,r6
	mov	b,r7
	lcall	__gptrget
	mov	r3,a
	inc	dptr
	lcall	__gptrget
	mov	r4,a
	inc	r3
	cjne	r3,#0x00,00103$
	inc	r4
00103$:
	mov	dpl,r5
	mov	dph,r6
	mov	b,r7
	mov	a,r3
	lcall	__gptrput
	inc	dptr
	mov	a,r4
	lcall	__gptrput
;	../contiki-sensinode/core/net/rime/rudolph1.c:328: c->send_interval = send_interval;
	mov	r0,sp
	dec	r0
	dec	r0
	mov	a,#0xA0
	add	a,@r0
	mov	r5,a
	clr	a
	inc	r0
	addc	a,@r0
	mov	r6,a
	inc	r0
	mov	ar7,@r0
	mov	dpl,r5
	mov	dph,r6
	mov	b,r7
	mov	a,sp
	add	a,#0xfa
	mov	r0,a
	mov	a,@r0
	lcall	__gptrput
	inc	dptr
	inc	r0
	mov	a,@r0
	lcall	__gptrput
;	../contiki-sensinode/core/net/rime/rudolph1.c:329: ctimer_set(&c->t, send_interval, send_next_packet, c);
	mov	r0,sp
	dec	r0
	dec	r0
	mov	ar5,@r0
	inc	r0
	mov	ar6,@r0
	inc	r0
	mov	ar7,@r0
	mov	r0,sp
	dec	r0
	dec	r0
	mov	a,#0x8B
	add	a,@r0
	mov	r2,a
	clr	a
	inc	r0
	addc	a,@r0
	mov	r3,a
	inc	r0
	mov	ar4,@r0
	push	ar5
	push	ar6
	push	ar7
	mov	a,#_send_next_packet
	push	acc
	mov	a,#(_send_next_packet >> 8)
	push	acc
	mov	a,sp
	add	a,#0xf5
	mov	r0,a
	mov	a,@r0
	push	acc
	inc	r0
	mov	a,@r0
	push	acc
	mov	dpl,r2
	mov	dph,r3
	mov	b,r4
	lcall	_ctimer_set
	mov	a,sp
	add	a,#0xf9
	mov	sp,a
	dec	sp
	dec	sp
	dec	sp
	ret
;------------------------------------------------------------
;Allocation info for local variables in function 'rudolph1_stop'
;------------------------------------------------------------
;c                         Allocated to registers r5 r6 r7 
;------------------------------------------------------------
;	../contiki-sensinode/core/net/rime/rudolph1.c:333: rudolph1_stop(struct rudolph1_conn *c)
;	-----------------------------------------
;	 function rudolph1_stop
;	-----------------------------------------
_rudolph1_stop:
	mov	r5,dpl
	mov	r6,dph
	mov	r7,b
;	../contiki-sensinode/core/net/rime/rudolph1.c:335: ctimer_stop(&c->t);
	mov	a,#0x8B
	add	a,r5
	mov	r5,a
	clr	a
	addc	a,r6
	mov	r6,a
	mov	dpl,r5
	mov	dph,r6
	mov	b,r7
	ljmp	_ctimer_stop
	.area CSEG    (CODE)
	.area CONST   (CODE)
_ipolite:
	.byte _recv_ipolite,(_recv_ipolite >> 8)
	.byte _sent_ipolite,(_sent_ipolite >> 8)
	.byte _dropped_ipolite,(_dropped_ipolite >> 8)
_trickle:
	.byte _recv_trickle,(_recv_trickle >> 8)
	.area XINIT   (CODE)
	.area CABS    (ABS,CODE)
