                                      1 ;--------------------------------------------------------
                                      2 ; File Created by SDCC : free open source ANSI-C Compiler
                                      3 ; Version 3.4.0 #8981 (Oct 24 2015) (Linux)
                                      4 ; This file was generated Sun Oct 25 01:52:10 2015
                                      5 ;--------------------------------------------------------
                                      6 	.module stimer
                                      7 	.optsdcc -mmcs51 --model-large
                                      8 	
                                      9 ;--------------------------------------------------------
                                     10 ; Public variables in this module
                                     11 ;--------------------------------------------------------
                                     12 	.globl _clock_seconds
                                     13 	.globl _stimer_set
                                     14 	.globl _stimer_reset
                                     15 	.globl _stimer_restart
                                     16 	.globl _stimer_expired
                                     17 	.globl _stimer_remaining
                                     18 	.globl _stimer_elapsed
                                     19 ;--------------------------------------------------------
                                     20 ; special function registers
                                     21 ;--------------------------------------------------------
                                     22 	.area RSEG    (ABS,DATA)
      000000                         23 	.org 0x0000
                                     24 ;--------------------------------------------------------
                                     25 ; special function bits
                                     26 ;--------------------------------------------------------
                                     27 	.area RSEG    (ABS,DATA)
      000000                         28 	.org 0x0000
                                     29 ;--------------------------------------------------------
                                     30 ; overlayable register banks
                                     31 ;--------------------------------------------------------
                                     32 	.area REG_BANK_0	(REL,OVR,DATA)
      000000                         33 	.ds 8
                                     34 ;--------------------------------------------------------
                                     35 ; internal ram data
                                     36 ;--------------------------------------------------------
                                     37 	.area DSEG    (DATA)
                                     38 ;--------------------------------------------------------
                                     39 ; overlayable items in internal ram 
                                     40 ;--------------------------------------------------------
                                     41 ;--------------------------------------------------------
                                     42 ; indirectly addressable internal ram data
                                     43 ;--------------------------------------------------------
                                     44 	.area ISEG    (DATA)
                                     45 ;--------------------------------------------------------
                                     46 ; absolute internal ram data
                                     47 ;--------------------------------------------------------
                                     48 	.area IABS    (ABS,DATA)
                                     49 	.area IABS    (ABS,DATA)
                                     50 ;--------------------------------------------------------
                                     51 ; bit data
                                     52 ;--------------------------------------------------------
                                     53 	.area BSEG    (BIT)
                                     54 ;--------------------------------------------------------
                                     55 ; paged external ram data
                                     56 ;--------------------------------------------------------
                                     57 	.area PSEG    (PAG,XDATA)
                                     58 ;--------------------------------------------------------
                                     59 ; external ram data
                                     60 ;--------------------------------------------------------
                                     61 	.area XSEG    (XDATA)
                                     62 ;--------------------------------------------------------
                                     63 ; absolute external ram data
                                     64 ;--------------------------------------------------------
                                     65 	.area XABS    (ABS,XDATA)
                                     66 ;--------------------------------------------------------
                                     67 ; external initialized ram data
                                     68 ;--------------------------------------------------------
                                     69 	.area XISEG   (XDATA)
                                     70 	.area HOME    (CODE)
                                     71 	.area GSINIT0 (CODE)
                                     72 	.area GSINIT1 (CODE)
                                     73 	.area GSINIT2 (CODE)
                                     74 	.area GSINIT3 (CODE)
                                     75 	.area GSINIT4 (CODE)
                                     76 	.area GSINIT5 (CODE)
                                     77 	.area GSINIT  (CODE)
                                     78 	.area GSFINAL (CODE)
                                     79 	.area CSEG    (CODE)
                                     80 ;--------------------------------------------------------
                                     81 ; global & static initialisations
                                     82 ;--------------------------------------------------------
                                     83 	.area HOME    (CODE)
                                     84 	.area GSINIT  (CODE)
                                     85 	.area GSFINAL (CODE)
                                     86 	.area GSINIT  (CODE)
                                     87 ;--------------------------------------------------------
                                     88 ; Home
                                     89 ;--------------------------------------------------------
                                     90 	.area HOME    (CODE)
                                     91 	.area HOME    (CODE)
                                     92 ;--------------------------------------------------------
                                     93 ; code
                                     94 ;--------------------------------------------------------
                                     95 	.area CSEG    (CODE)
                                     96 ;------------------------------------------------------------
                                     97 ;Allocation info for local variables in function 'stimer_set'
                                     98 ;------------------------------------------------------------
                                     99 ;interval                  Allocated to stack - sp -8
                                    100 ;t                         Allocated to stack - sp -2
                                    101 ;------------------------------------------------------------
                                    102 ;	../contiki-sensinode/core/sys/stimer.c:67: stimer_set(struct stimer *t, unsigned long interval)
                                    103 ;	-----------------------------------------
                                    104 ;	 function stimer_set
                                    105 ;	-----------------------------------------
      000000                        106 _stimer_set:
                           000007   107 	ar7 = 0x07
                           000006   108 	ar6 = 0x06
                           000005   109 	ar5 = 0x05
                           000004   110 	ar4 = 0x04
                           000003   111 	ar3 = 0x03
                           000002   112 	ar2 = 0x02
                           000001   113 	ar1 = 0x01
                           000000   114 	ar0 = 0x00
      000000 C0 82            [24]  115 	push	dpl
      000002 C0 83            [24]  116 	push	dph
      000004 C0 F0            [24]  117 	push	b
                                    118 ;	../contiki-sensinode/core/sys/stimer.c:69: t->interval = interval;
      000006 A8 81            [24]  119 	mov	r0,sp
      000008 18               [12]  120 	dec	r0
      000009 18               [12]  121 	dec	r0
      00000A 74 04            [12]  122 	mov	a,#0x04
      00000C 26               [12]  123 	add	a,@r0
      00000D FA               [12]  124 	mov	r2,a
      00000E E4               [12]  125 	clr	a
      00000F 08               [12]  126 	inc	r0
      000010 36               [12]  127 	addc	a,@r0
      000011 FB               [12]  128 	mov	r3,a
      000012 08               [12]  129 	inc	r0
      000013 86 04            [24]  130 	mov	ar4,@r0
      000015 8A 82            [24]  131 	mov	dpl,r2
      000017 8B 83            [24]  132 	mov	dph,r3
      000019 8C F0            [24]  133 	mov	b,r4
      00001B E5 81            [12]  134 	mov	a,sp
      00001D 24 F8            [12]  135 	add	a,#0xf8
      00001F F8               [12]  136 	mov	r0,a
      000020 E6               [12]  137 	mov	a,@r0
      000021 12r00r00         [24]  138 	lcall	__gptrput
      000024 A3               [24]  139 	inc	dptr
      000025 08               [12]  140 	inc	r0
      000026 E6               [12]  141 	mov	a,@r0
      000027 12r00r00         [24]  142 	lcall	__gptrput
      00002A A3               [24]  143 	inc	dptr
      00002B 08               [12]  144 	inc	r0
      00002C E6               [12]  145 	mov	a,@r0
      00002D 12r00r00         [24]  146 	lcall	__gptrput
      000030 A3               [24]  147 	inc	dptr
      000031 08               [12]  148 	inc	r0
      000032 E6               [12]  149 	mov	a,@r0
      000033 12r00r00         [24]  150 	lcall	__gptrput
                                    151 ;	../contiki-sensinode/core/sys/stimer.c:70: t->start = clock_seconds();
      000036 12r00r00         [24]  152 	lcall	_clock_seconds
      000039 AA 82            [24]  153 	mov	r2,dpl
      00003B AB 83            [24]  154 	mov	r3,dph
      00003D AC F0            [24]  155 	mov	r4,b
      00003F FF               [12]  156 	mov	r7,a
      000040 A8 81            [24]  157 	mov	r0,sp
      000042 18               [12]  158 	dec	r0
      000043 18               [12]  159 	dec	r0
      000044 86 82            [24]  160 	mov	dpl,@r0
      000046 08               [12]  161 	inc	r0
      000047 86 83            [24]  162 	mov	dph,@r0
      000049 08               [12]  163 	inc	r0
      00004A 86 F0            [24]  164 	mov	b,@r0
      00004C EA               [12]  165 	mov	a,r2
      00004D 12r00r00         [24]  166 	lcall	__gptrput
      000050 A3               [24]  167 	inc	dptr
      000051 EB               [12]  168 	mov	a,r3
      000052 12r00r00         [24]  169 	lcall	__gptrput
      000055 A3               [24]  170 	inc	dptr
      000056 EC               [12]  171 	mov	a,r4
      000057 12r00r00         [24]  172 	lcall	__gptrput
      00005A A3               [24]  173 	inc	dptr
      00005B EF               [12]  174 	mov	a,r7
      00005C 12r00r00         [24]  175 	lcall	__gptrput
      00005F 15 81            [12]  176 	dec	sp
      000061 15 81            [12]  177 	dec	sp
      000063 15 81            [12]  178 	dec	sp
      000065 22               [24]  179 	ret
                                    180 ;------------------------------------------------------------
                                    181 ;Allocation info for local variables in function 'stimer_reset'
                                    182 ;------------------------------------------------------------
                                    183 ;t                         Allocated to stack - sp -6
                                    184 ;sloc0                     Allocated to stack - sp -3
                                    185 ;sloc1                     Allocated to stack - sp +1
                                    186 ;------------------------------------------------------------
                                    187 ;	../contiki-sensinode/core/sys/stimer.c:87: stimer_reset(struct stimer *t)
                                    188 ;	-----------------------------------------
                                    189 ;	 function stimer_reset
                                    190 ;	-----------------------------------------
      000066                        191 _stimer_reset:
      000066 C0 82            [24]  192 	push	dpl
      000068 C0 83            [24]  193 	push	dph
      00006A C0 F0            [24]  194 	push	b
      00006C E5 81            [12]  195 	mov	a,sp
      00006E 24 04            [12]  196 	add	a,#0x04
                                    197 ;	../contiki-sensinode/core/sys/stimer.c:89: t->start += t->interval;
      000070 F5 81            [12]  198 	mov	sp,a
      000072 24 FA            [12]  199 	add	a,#0xfa
      000074 F8               [12]  200 	mov	r0,a
      000075 86 82            [24]  201 	mov	dpl,@r0
      000077 08               [12]  202 	inc	r0
      000078 86 83            [24]  203 	mov	dph,@r0
      00007A 08               [12]  204 	inc	r0
      00007B 86 F0            [24]  205 	mov	b,@r0
      00007D E5 81            [12]  206 	mov	a,sp
      00007F 24 FD            [12]  207 	add	a,#0xfd
      000081 F9               [12]  208 	mov	r1,a
      000082 12r00r00         [24]  209 	lcall	__gptrget
      000085 F7               [12]  210 	mov	@r1,a
      000086 A3               [24]  211 	inc	dptr
      000087 12r00r00         [24]  212 	lcall	__gptrget
      00008A 09               [12]  213 	inc	r1
      00008B F7               [12]  214 	mov	@r1,a
      00008C A3               [24]  215 	inc	dptr
      00008D 12r00r00         [24]  216 	lcall	__gptrget
      000090 09               [12]  217 	inc	r1
      000091 F7               [12]  218 	mov	@r1,a
      000092 A3               [24]  219 	inc	dptr
      000093 12r00r00         [24]  220 	lcall	__gptrget
      000096 09               [12]  221 	inc	r1
      000097 F7               [12]  222 	mov	@r1,a
      000098 E5 81            [12]  223 	mov	a,sp
      00009A 24 FA            [12]  224 	add	a,#0xfa
      00009C F8               [12]  225 	mov	r0,a
      00009D 74 04            [12]  226 	mov	a,#0x04
      00009F 26               [12]  227 	add	a,@r0
      0000A0 FF               [12]  228 	mov	r7,a
      0000A1 E4               [12]  229 	clr	a
      0000A2 08               [12]  230 	inc	r0
      0000A3 36               [12]  231 	addc	a,@r0
      0000A4 FE               [12]  232 	mov	r6,a
      0000A5 08               [12]  233 	inc	r0
      0000A6 86 05            [24]  234 	mov	ar5,@r0
      0000A8 8F 82            [24]  235 	mov	dpl,r7
      0000AA 8E 83            [24]  236 	mov	dph,r6
      0000AC 8D F0            [24]  237 	mov	b,r5
      0000AE 12r00r00         [24]  238 	lcall	__gptrget
      0000B1 FA               [12]  239 	mov	r2,a
      0000B2 A3               [24]  240 	inc	dptr
      0000B3 12r00r00         [24]  241 	lcall	__gptrget
      0000B6 FB               [12]  242 	mov	r3,a
      0000B7 A3               [24]  243 	inc	dptr
      0000B8 12r00r00         [24]  244 	lcall	__gptrget
      0000BB FC               [12]  245 	mov	r4,a
      0000BC A3               [24]  246 	inc	dptr
      0000BD 12r00r00         [24]  247 	lcall	__gptrget
      0000C0 FD               [12]  248 	mov	r5,a
      0000C1 E5 81            [12]  249 	mov	a,sp
      0000C3 24 FD            [12]  250 	add	a,#0xfd
      0000C5 F8               [12]  251 	mov	r0,a
      0000C6 EA               [12]  252 	mov	a,r2
      0000C7 26               [12]  253 	add	a,@r0
      0000C8 FA               [12]  254 	mov	r2,a
      0000C9 EB               [12]  255 	mov	a,r3
      0000CA 08               [12]  256 	inc	r0
      0000CB 36               [12]  257 	addc	a,@r0
      0000CC FB               [12]  258 	mov	r3,a
      0000CD EC               [12]  259 	mov	a,r4
      0000CE 08               [12]  260 	inc	r0
      0000CF 36               [12]  261 	addc	a,@r0
      0000D0 FC               [12]  262 	mov	r4,a
      0000D1 ED               [12]  263 	mov	a,r5
      0000D2 08               [12]  264 	inc	r0
      0000D3 36               [12]  265 	addc	a,@r0
      0000D4 FD               [12]  266 	mov	r5,a
      0000D5 E5 81            [12]  267 	mov	a,sp
      0000D7 24 FA            [12]  268 	add	a,#0xfa
      0000D9 F8               [12]  269 	mov	r0,a
      0000DA 86 82            [24]  270 	mov	dpl,@r0
      0000DC 08               [12]  271 	inc	r0
      0000DD 86 83            [24]  272 	mov	dph,@r0
      0000DF 08               [12]  273 	inc	r0
      0000E0 86 F0            [24]  274 	mov	b,@r0
      0000E2 EA               [12]  275 	mov	a,r2
      0000E3 12r00r00         [24]  276 	lcall	__gptrput
      0000E6 A3               [24]  277 	inc	dptr
      0000E7 EB               [12]  278 	mov	a,r3
      0000E8 12r00r00         [24]  279 	lcall	__gptrput
      0000EB A3               [24]  280 	inc	dptr
      0000EC EC               [12]  281 	mov	a,r4
      0000ED 12r00r00         [24]  282 	lcall	__gptrput
      0000F0 A3               [24]  283 	inc	dptr
      0000F1 ED               [12]  284 	mov	a,r5
      0000F2 12r00r00         [24]  285 	lcall	__gptrput
      0000F5 E5 81            [12]  286 	mov	a,sp
      0000F7 24 F9            [12]  287 	add	a,#0xF9
      0000F9 F5 81            [12]  288 	mov	sp,a
      0000FB 22               [24]  289 	ret
                                    290 ;------------------------------------------------------------
                                    291 ;Allocation info for local variables in function 'stimer_restart'
                                    292 ;------------------------------------------------------------
                                    293 ;t                         Allocated to registers r5 r6 r7 
                                    294 ;------------------------------------------------------------
                                    295 ;	../contiki-sensinode/core/sys/stimer.c:107: stimer_restart(struct stimer *t)
                                    296 ;	-----------------------------------------
                                    297 ;	 function stimer_restart
                                    298 ;	-----------------------------------------
      0000FC                        299 _stimer_restart:
      0000FC AD 82            [24]  300 	mov	r5,dpl
      0000FE AE 83            [24]  301 	mov	r6,dph
      000100 AF F0            [24]  302 	mov	r7,b
                                    303 ;	../contiki-sensinode/core/sys/stimer.c:109: t->start = clock_seconds();
      000102 C0 07            [24]  304 	push	ar7
      000104 C0 06            [24]  305 	push	ar6
      000106 C0 05            [24]  306 	push	ar5
      000108 12r00r00         [24]  307 	lcall	_clock_seconds
      00010B A9 82            [24]  308 	mov	r1,dpl
      00010D AA 83            [24]  309 	mov	r2,dph
      00010F AB F0            [24]  310 	mov	r3,b
      000111 FC               [12]  311 	mov	r4,a
      000112 D0 05            [24]  312 	pop	ar5
      000114 D0 06            [24]  313 	pop	ar6
      000116 D0 07            [24]  314 	pop	ar7
      000118 8D 82            [24]  315 	mov	dpl,r5
      00011A 8E 83            [24]  316 	mov	dph,r6
      00011C 8F F0            [24]  317 	mov	b,r7
      00011E E9               [12]  318 	mov	a,r1
      00011F 12r00r00         [24]  319 	lcall	__gptrput
      000122 A3               [24]  320 	inc	dptr
      000123 EA               [12]  321 	mov	a,r2
      000124 12r00r00         [24]  322 	lcall	__gptrput
      000127 A3               [24]  323 	inc	dptr
      000128 EB               [12]  324 	mov	a,r3
      000129 12r00r00         [24]  325 	lcall	__gptrput
      00012C A3               [24]  326 	inc	dptr
      00012D EC               [12]  327 	mov	a,r4
      00012E 02r00r00         [24]  328 	ljmp	__gptrput
                                    329 ;------------------------------------------------------------
                                    330 ;Allocation info for local variables in function 'stimer_expired'
                                    331 ;------------------------------------------------------------
                                    332 ;t                         Allocated to registers r7 r6 r5 
                                    333 ;sloc0                     Allocated to stack - sp -11
                                    334 ;sloc1                     Allocated to stack - sp -7
                                    335 ;sloc2                     Allocated to stack - sp -3
                                    336 ;------------------------------------------------------------
                                    337 ;	../contiki-sensinode/core/sys/stimer.c:124: stimer_expired(struct stimer *t)
                                    338 ;	-----------------------------------------
                                    339 ;	 function stimer_expired
                                    340 ;	-----------------------------------------
      000131                        341 _stimer_expired:
      000131 E5 81            [12]  342 	mov	a,sp
      000133 24 0C            [12]  343 	add	a,#0x0C
      000135 F5 81            [12]  344 	mov	sp,a
      000137 AF 82            [24]  345 	mov	r7,dpl
      000139 AE 83            [24]  346 	mov	r6,dph
      00013B AD F0            [24]  347 	mov	r5,b
                                    348 ;	../contiki-sensinode/core/sys/stimer.c:126: return SCLOCK_GEQ(clock_seconds(), t->start + t->interval);
      00013D C0 07            [24]  349 	push	ar7
      00013F C0 06            [24]  350 	push	ar6
      000141 C0 05            [24]  351 	push	ar5
      000143 12r00r00         [24]  352 	lcall	_clock_seconds
      000146 C8               [12]  353 	xch	a,r0
      000147 E5 81            [12]  354 	mov	a,sp
      000149 24 F2            [12]  355 	add	a,#0xf2
      00014B C8               [12]  356 	xch	a,r0
      00014C A6 82            [24]  357 	mov	@r0,dpl
      00014E 08               [12]  358 	inc	r0
      00014F A6 83            [24]  359 	mov	@r0,dph
      000151 08               [12]  360 	inc	r0
      000152 A6 F0            [24]  361 	mov	@r0,b
      000154 08               [12]  362 	inc	r0
      000155 F6               [12]  363 	mov	@r0,a
      000156 D0 05            [24]  364 	pop	ar5
      000158 D0 06            [24]  365 	pop	ar6
      00015A D0 07            [24]  366 	pop	ar7
      00015C 8F 82            [24]  367 	mov	dpl,r7
      00015E 8E 83            [24]  368 	mov	dph,r6
      000160 8D F0            [24]  369 	mov	b,r5
      000162 E5 81            [12]  370 	mov	a,sp
      000164 24 F9            [12]  371 	add	a,#0xf9
      000166 F8               [12]  372 	mov	r0,a
      000167 12r00r00         [24]  373 	lcall	__gptrget
      00016A F6               [12]  374 	mov	@r0,a
      00016B A3               [24]  375 	inc	dptr
      00016C 12r00r00         [24]  376 	lcall	__gptrget
      00016F 08               [12]  377 	inc	r0
      000170 F6               [12]  378 	mov	@r0,a
      000171 A3               [24]  379 	inc	dptr
      000172 12r00r00         [24]  380 	lcall	__gptrget
      000175 08               [12]  381 	inc	r0
      000176 F6               [12]  382 	mov	@r0,a
      000177 A3               [24]  383 	inc	dptr
      000178 12r00r00         [24]  384 	lcall	__gptrget
      00017B 08               [12]  385 	inc	r0
      00017C F6               [12]  386 	mov	@r0,a
      00017D 74 04            [12]  387 	mov	a,#0x04
      00017F 2F               [12]  388 	add	a,r7
      000180 FA               [12]  389 	mov	r2,a
      000181 E4               [12]  390 	clr	a
      000182 3E               [12]  391 	addc	a,r6
      000183 FB               [12]  392 	mov	r3,a
      000184 8D 04            [24]  393 	mov	ar4,r5
      000186 8A 82            [24]  394 	mov	dpl,r2
      000188 8B 83            [24]  395 	mov	dph,r3
      00018A 8C F0            [24]  396 	mov	b,r4
      00018C 12r00r00         [24]  397 	lcall	__gptrget
      00018F FF               [12]  398 	mov	r7,a
      000190 A3               [24]  399 	inc	dptr
      000191 12r00r00         [24]  400 	lcall	__gptrget
      000194 FE               [12]  401 	mov	r6,a
      000195 A3               [24]  402 	inc	dptr
      000196 12r00r00         [24]  403 	lcall	__gptrget
      000199 FD               [12]  404 	mov	r5,a
      00019A A3               [24]  405 	inc	dptr
      00019B 12r00r00         [24]  406 	lcall	__gptrget
      00019E FC               [12]  407 	mov	r4,a
      00019F E5 81            [12]  408 	mov	a,sp
      0001A1 24 F9            [12]  409 	add	a,#0xf9
      0001A3 F8               [12]  410 	mov	r0,a
      0001A4 EF               [12]  411 	mov	a,r7
      0001A5 26               [12]  412 	add	a,@r0
      0001A6 FF               [12]  413 	mov	r7,a
      0001A7 EE               [12]  414 	mov	a,r6
      0001A8 08               [12]  415 	inc	r0
      0001A9 36               [12]  416 	addc	a,@r0
      0001AA FE               [12]  417 	mov	r6,a
      0001AB ED               [12]  418 	mov	a,r5
      0001AC 08               [12]  419 	inc	r0
      0001AD 36               [12]  420 	addc	a,@r0
      0001AE FD               [12]  421 	mov	r5,a
      0001AF EC               [12]  422 	mov	a,r4
      0001B0 08               [12]  423 	inc	r0
      0001B1 36               [12]  424 	addc	a,@r0
      0001B2 FC               [12]  425 	mov	r4,a
      0001B3 E5 81            [12]  426 	mov	a,sp
      0001B5 24 F5            [12]  427 	add	a,#0xf5
      0001B7 F8               [12]  428 	mov	r0,a
      0001B8 E5 81            [12]  429 	mov	a,sp
      0001BA 24 FD            [12]  430 	add	a,#0xfd
      0001BC F9               [12]  431 	mov	r1,a
      0001BD E6               [12]  432 	mov	a,@r0
      0001BE C3               [12]  433 	clr	c
      0001BF 9F               [12]  434 	subb	a,r7
      0001C0 F7               [12]  435 	mov	@r1,a
      0001C1 08               [12]  436 	inc	r0
      0001C2 E6               [12]  437 	mov	a,@r0
      0001C3 9E               [12]  438 	subb	a,r6
      0001C4 09               [12]  439 	inc	r1
      0001C5 F7               [12]  440 	mov	@r1,a
      0001C6 08               [12]  441 	inc	r0
      0001C7 E6               [12]  442 	mov	a,@r0
      0001C8 9D               [12]  443 	subb	a,r5
      0001C9 09               [12]  444 	inc	r1
      0001CA F7               [12]  445 	mov	@r1,a
      0001CB 08               [12]  446 	inc	r0
      0001CC E6               [12]  447 	mov	a,@r0
      0001CD 9C               [12]  448 	subb	a,r4
      0001CE 09               [12]  449 	inc	r1
      0001CF F7               [12]  450 	mov	@r1,a
      0001D0 E5 81            [12]  451 	mov	a,sp
      0001D2 24 FD            [12]  452 	add	a,#0xfd
      0001D4 F8               [12]  453 	mov	r0,a
      0001D5 C3               [12]  454 	clr	c
      0001D6 E6               [12]  455 	mov	a,@r0
      0001D7 94 FF            [12]  456 	subb	a,#0xFF
      0001D9 08               [12]  457 	inc	r0
      0001DA E6               [12]  458 	mov	a,@r0
      0001DB 94 FF            [12]  459 	subb	a,#0xFF
      0001DD 08               [12]  460 	inc	r0
      0001DE E6               [12]  461 	mov	a,@r0
      0001DF 94 FF            [12]  462 	subb	a,#0xFF
      0001E1 08               [12]  463 	inc	r0
      0001E2 E6               [12]  464 	mov	a,@r0
      0001E3 94 7F            [12]  465 	subb	a,#0x7F
      0001E5 E4               [12]  466 	clr	a
      0001E6 33               [12]  467 	rlc	a
      0001E7 FC               [12]  468 	mov	r4,a
      0001E8 33               [12]  469 	rlc	a
      0001E9 95 E0            [12]  470 	subb	a,acc
      0001EB FB               [12]  471 	mov	r3,a
      0001EC 8C 82            [24]  472 	mov	dpl,r4
      0001EE 8B 83            [24]  473 	mov	dph,r3
      0001F0 E5 81            [12]  474 	mov	a,sp
      0001F2 24 F4            [12]  475 	add	a,#0xF4
      0001F4 F5 81            [12]  476 	mov	sp,a
      0001F6 22               [24]  477 	ret
                                    478 ;------------------------------------------------------------
                                    479 ;Allocation info for local variables in function 'stimer_remaining'
                                    480 ;------------------------------------------------------------
                                    481 ;t                         Allocated to registers r5 r6 r7 
                                    482 ;------------------------------------------------------------
                                    483 ;	../contiki-sensinode/core/sys/stimer.c:140: stimer_remaining(struct stimer *t)
                                    484 ;	-----------------------------------------
                                    485 ;	 function stimer_remaining
                                    486 ;	-----------------------------------------
      0001F7                        487 _stimer_remaining:
                                    488 ;	../contiki-sensinode/core/sys/stimer.c:142: return t->start + t->interval - clock_seconds();
      0001F7 AD 82            [24]  489 	mov	r5,dpl
      0001F9 AE 83            [24]  490 	mov	r6,dph
      0001FB AF F0            [24]  491 	mov	r7,b
      0001FD 12r00r00         [24]  492 	lcall	__gptrget
      000200 F9               [12]  493 	mov	r1,a
      000201 A3               [24]  494 	inc	dptr
      000202 12r00r00         [24]  495 	lcall	__gptrget
      000205 FA               [12]  496 	mov	r2,a
      000206 A3               [24]  497 	inc	dptr
      000207 12r00r00         [24]  498 	lcall	__gptrget
      00020A FB               [12]  499 	mov	r3,a
      00020B A3               [24]  500 	inc	dptr
      00020C 12r00r00         [24]  501 	lcall	__gptrget
      00020F FC               [12]  502 	mov	r4,a
      000210 74 04            [12]  503 	mov	a,#0x04
      000212 2D               [12]  504 	add	a,r5
      000213 FD               [12]  505 	mov	r5,a
      000214 E4               [12]  506 	clr	a
      000215 3E               [12]  507 	addc	a,r6
      000216 FE               [12]  508 	mov	r6,a
      000217 8D 82            [24]  509 	mov	dpl,r5
      000219 8E 83            [24]  510 	mov	dph,r6
      00021B 8F F0            [24]  511 	mov	b,r7
      00021D 12r00r00         [24]  512 	lcall	__gptrget
      000220 F8               [12]  513 	mov	r0,a
      000221 A3               [24]  514 	inc	dptr
      000222 12r00r00         [24]  515 	lcall	__gptrget
      000225 FD               [12]  516 	mov	r5,a
      000226 A3               [24]  517 	inc	dptr
      000227 12r00r00         [24]  518 	lcall	__gptrget
      00022A FE               [12]  519 	mov	r6,a
      00022B A3               [24]  520 	inc	dptr
      00022C 12r00r00         [24]  521 	lcall	__gptrget
      00022F FF               [12]  522 	mov	r7,a
      000230 E8               [12]  523 	mov	a,r0
      000231 29               [12]  524 	add	a,r1
      000232 F9               [12]  525 	mov	r1,a
      000233 ED               [12]  526 	mov	a,r5
      000234 3A               [12]  527 	addc	a,r2
      000235 FA               [12]  528 	mov	r2,a
      000236 EE               [12]  529 	mov	a,r6
      000237 3B               [12]  530 	addc	a,r3
      000238 FB               [12]  531 	mov	r3,a
      000239 EF               [12]  532 	mov	a,r7
      00023A 3C               [12]  533 	addc	a,r4
      00023B FC               [12]  534 	mov	r4,a
      00023C C0 04            [24]  535 	push	ar4
      00023E C0 03            [24]  536 	push	ar3
      000240 C0 02            [24]  537 	push	ar2
      000242 C0 01            [24]  538 	push	ar1
      000244 12r00r00         [24]  539 	lcall	_clock_seconds
      000247 A8 82            [24]  540 	mov	r0,dpl
      000249 AD 83            [24]  541 	mov	r5,dph
      00024B AE F0            [24]  542 	mov	r6,b
      00024D FF               [12]  543 	mov	r7,a
      00024E D0 01            [24]  544 	pop	ar1
      000250 D0 02            [24]  545 	pop	ar2
      000252 D0 03            [24]  546 	pop	ar3
      000254 D0 04            [24]  547 	pop	ar4
      000256 E9               [12]  548 	mov	a,r1
      000257 C3               [12]  549 	clr	c
      000258 98               [12]  550 	subb	a,r0
      000259 F9               [12]  551 	mov	r1,a
      00025A EA               [12]  552 	mov	a,r2
      00025B 9D               [12]  553 	subb	a,r5
      00025C FA               [12]  554 	mov	r2,a
      00025D EB               [12]  555 	mov	a,r3
      00025E 9E               [12]  556 	subb	a,r6
      00025F FB               [12]  557 	mov	r3,a
      000260 EC               [12]  558 	mov	a,r4
      000261 9F               [12]  559 	subb	a,r7
      000262 89 82            [24]  560 	mov	dpl,r1
      000264 8A 83            [24]  561 	mov	dph,r2
      000266 8B F0            [24]  562 	mov	b,r3
      000268 22               [24]  563 	ret
                                    564 ;------------------------------------------------------------
                                    565 ;Allocation info for local variables in function 'stimer_elapsed'
                                    566 ;------------------------------------------------------------
                                    567 ;t                         Allocated to registers r5 r6 r7 
                                    568 ;------------------------------------------------------------
                                    569 ;	../contiki-sensinode/core/sys/stimer.c:156: stimer_elapsed(struct stimer *t)
                                    570 ;	-----------------------------------------
                                    571 ;	 function stimer_elapsed
                                    572 ;	-----------------------------------------
      000269                        573 _stimer_elapsed:
      000269 AD 82            [24]  574 	mov	r5,dpl
      00026B AE 83            [24]  575 	mov	r6,dph
      00026D AF F0            [24]  576 	mov	r7,b
                                    577 ;	../contiki-sensinode/core/sys/stimer.c:158: return clock_seconds() - t->start;
      00026F C0 07            [24]  578 	push	ar7
      000271 C0 06            [24]  579 	push	ar6
      000273 C0 05            [24]  580 	push	ar5
      000275 12r00r00         [24]  581 	lcall	_clock_seconds
      000278 A9 82            [24]  582 	mov	r1,dpl
      00027A AA 83            [24]  583 	mov	r2,dph
      00027C AB F0            [24]  584 	mov	r3,b
      00027E FC               [12]  585 	mov	r4,a
      00027F D0 05            [24]  586 	pop	ar5
      000281 D0 06            [24]  587 	pop	ar6
      000283 D0 07            [24]  588 	pop	ar7
      000285 8D 82            [24]  589 	mov	dpl,r5
      000287 8E 83            [24]  590 	mov	dph,r6
      000289 8F F0            [24]  591 	mov	b,r7
      00028B 12r00r00         [24]  592 	lcall	__gptrget
      00028E F8               [12]  593 	mov	r0,a
      00028F A3               [24]  594 	inc	dptr
      000290 12r00r00         [24]  595 	lcall	__gptrget
      000293 FD               [12]  596 	mov	r5,a
      000294 A3               [24]  597 	inc	dptr
      000295 12r00r00         [24]  598 	lcall	__gptrget
      000298 FE               [12]  599 	mov	r6,a
      000299 A3               [24]  600 	inc	dptr
      00029A 12r00r00         [24]  601 	lcall	__gptrget
      00029D FF               [12]  602 	mov	r7,a
      00029E E9               [12]  603 	mov	a,r1
      00029F C3               [12]  604 	clr	c
      0002A0 98               [12]  605 	subb	a,r0
      0002A1 F9               [12]  606 	mov	r1,a
      0002A2 EA               [12]  607 	mov	a,r2
      0002A3 9D               [12]  608 	subb	a,r5
      0002A4 FA               [12]  609 	mov	r2,a
      0002A5 EB               [12]  610 	mov	a,r3
      0002A6 9E               [12]  611 	subb	a,r6
      0002A7 FB               [12]  612 	mov	r3,a
      0002A8 EC               [12]  613 	mov	a,r4
      0002A9 9F               [12]  614 	subb	a,r7
      0002AA 89 82            [24]  615 	mov	dpl,r1
      0002AC 8A 83            [24]  616 	mov	dph,r2
      0002AE 8B F0            [24]  617 	mov	b,r3
      0002B0 22               [24]  618 	ret
                                    619 	.area CSEG    (CODE)
                                    620 	.area CONST   (CODE)
                                    621 	.area XINIT   (CODE)
                                    622 	.area CABS    (ABS,CODE)
